(dp0
S'A'
p1
(lp2
S'Alanine'
p3
aS'Ala'
p4
ag1
asS'C'
p5
(lp6
S'Cysteine'
p7
aS'Cys'
p8
ag5
asS'E'
p9
(lp10
S'Glutamic\\ acid'
p11
aS'Glu'
p12
ag9
asS'D'
p13
(lp14
S'Aspartic\\ acid'
p15
aS'Asp'
p16
ag13
asS'G'
p17
(lp18
S'Glycine'
p19
aS'Gly'
p20
ag17
asS'F'
p21
(lp22
S'Phenylalanine'
p23
aS'Phe'
p24
ag21
asS'I'
p25
(lp26
S'Isoleucine'
p27
aS'Ile'
p28
ag25
asS'H'
p29
(lp30
S'Histidine'
p31
aS'His'
p32
ag29
asS'K'
p33
(lp34
S'Lysine'
p35
aS'Lys'
p36
ag33
asS'M'
p37
(lp38
S'Methionine'
p39
aS'Met'
p40
ag37
asS'L'
p41
(lp42
S'Leucine'
p43
aS'Leu'
p44
ag41
asS'O'
p45
(lp46
S'Pyrrolysine'
p47
aS'Pyl'
p48
ag45
asS'N'
p49
(lp50
S'Asparagine'
p51
aS'Asn'
p52
ag49
asS'Q'
p53
(lp54
S'Glutamine'
p55
aS'Gln'
p56
ag53
asS'P'
p57
(lp58
S'Proline'
p59
aS'Pro'
p60
ag57
asS'S'
p61
(lp62
S'Serine'
p63
aS'Ser'
p64
ag61
asS'R'
p65
(lp66
S'Arginine'
p67
aS'Arg'
p68
ag65
asS'U'
p69
(lp70
S'Selenocysteine'
p71
aS'Sec'
p72
ag69
asS'T'
p73
(lp74
S'Threonine'
p75
aS'Thr'
p76
ag73
asS'W'
p77
(lp78
S'Tryptophan'
p79
aS'Trp'
p80
ag77
asS'V'
p81
(lp82
S'Valine'
p83
aS'Val'
p84
ag81
asS'Y'
p85
(lp86
S'Tyrosine'
p87
aS'Tyr'
p88
ag85
as.