(dp0
S'ERRFI1'
p1
(dp2
S'Deletion'
p3
S'%_LIKELY_LOSS_VARIATION_%'
p4
ssS'CCNE1'
p5
(dp6
S'Amplification'
p7
S'%_GAIN_VARIATION_%'
p8
sS'Overexpression'
p9
g8
ssS'STK11'
p10
(dp11
S'Truncating Mutations'
p12
g4
sg3
g4
sS'D194Y'
p13
S'%_LOSS_VARIATION_%'
p14
sS'H174R'
p15
g14
sS'R304W'
p16
g14
sS'K78A'
p17
g14
sS'W308C'
p18
g14
sS'F354L'
p19
S'%_LIKELY_NEUTRAL_VARIATION_%'
p20
sS'K78I'
p21
g14
sS'G163D'
p22
g14
sS'L67P'
p23
g14
sS'M136R'
p24
g14
sS'A205T'
p25
g14
ssS'MEN1'
p26
(dp27
g3
g14
ssS'FAM58A'
p28
(dp29
g12
g4
ssS'AKT1'
p30
(dp31
S'Q59E'
p32
S'%_NEUTRAL_VARIATION_%'
p33
sS'V270A'
p34
g8
sS'K179M'
p35
S'%_LIKELY_SWITCH_VARIATION_%'
p36
sS'R370C'
p37
S'%_LIKELY_GAIN_VARIATION_%'
p38
sS'N53A'
p39
g8
sS'W80A'
p40
g8
sS'L78T'
p41
g8
sS'L52R'
p42
g8
sS'L362R'
p43
g33
sS'E49K'
p44
g8
sS'Q79E'
p45
g8
sS'C77F'
p46
g38
sS'K39N'
p47
g20
sS'E17K'
p48
g8
sS'P42T'
p49
g20
sS'L202F'
p50
g33
sS'D32Y'
p51
g20
sS'T195I'
p52
g8
sS'V271A'
p53
g8
sS'D325A'
p54
g8
sS'E40K'
p55
g8
sS'R23A'
p56
g8
sS'D323H'
p57
g8
sS'E267G'
p58
g38
sS'Q79K'
p59
g8
sS'K189N'
p60
g8
sS'G311D'
p61
g36
sS'L321A'
p62
g8
ssS'AKT2'
p63
(dp64
S'D32H'
p65
g8
sg7
g8
sS'Fusions'
p66
g38
sS'G161V'
p67
S'%_SWITCH_VARIATION_%'
p68
sS'R170W'
p69
g8
sg48
g8
sS'K181M'
p70
g68
sS'D399N'
p71
g8
sS'H355M'
p72
g8
sS'I289M'
p73
g8
sS'R368C'
p74
g8
ssS'AKT3'
p75
(dp76
g48
g8
sg66
g38
sg7
g8
sS'MAGI3-AKT3 Fusion'
p77
g8
ssS'ARAF'
p78
(dp79
S'G322S'
p80
g8
sS'S214A'
p81
g38
sS'S214C'
p82
g8
sS'Q347_A348del'
p83
g8
sS'F351L'
p84
g8
sS'N217I'
p85
g8
sS'S214T'
p86
g8
ssS'RB1'
p87
(dp88
S'L607I'
p89
g4
sS'W563L'
p90
S'%_INCONCLUSIVE_VARIATION_%'
p91
sS'R698W'
p92
g4
sS'N480del'
p93
g20
sg12
g4
sS'C712R'
p94
g20
sg3
g4
sS'C706F'
p95
g4
sS'S567L'
p96
g4
sS'R661W'
p97
g91
ssS'IKBKE'
p98
(dp99
g7
g38
ssS'NKX2-1'
p100
(dp101
S'IGH-NKX2 Fusion'
p102
g38
sS'TRA-NKX2-1 Fusion'
p103
g38
sg7
g8
sg66
g38
sS'A339V'
p104
g8
sS'TRB-NKX2-1 Fusion'
p105
g38
ssS'ROS1'
p106
(dp107
g7
g38
sS'G2032R'
p108
g38
sS'G2101A'
p109
g38
sS'E1935G'
p110
g38
sS'L1951R'
p111
g91
sS'LIMA1-ROS1 Fusion'
p112
g38
sS'CD74-ROS1 Fusion'
p113
g8
sS'KDELR2-ROS1 Fusion'
p114
g38
sS'EZR-ROS1 Fusion'
p115
g8
sS'TFG-ROS1 Fusion'
p116
g38
sS'CCDC6-ROS1 Fusion'
p117
g38
sS'CEP85L-ROS1 Fusion'
p118
g38
sS'C2060G'
p119
g38
sS'SLC34A2-ROS1 Fusion'
p120
g8
sS'D2033N'
p121
g38
sS'V2098I'
p122
g38
sS'LRIG3-ROS1 Fusion'
p123
g8
sS'L1947R'
p124
g38
sS'MSN-ROS1 Fusion'
p125
g38
sS'FIG-ROS1 Fusion'
p126
g8
sg66
g38
sS'ROS1-CD74 Fusion'
p127
g8
sS'S1986F'
p128
g38
sS'G1971E'
p129
g38
sS'SDC4-ROS1 Fusion'
p130
g8
sS'S1986Y'
p131
g38
ssS'AXL'
p132
(dp133
g7
g38
ssS'RARA'
p134
(dp135
S'R276W'
p136
g91
ssS'RAD51D'
p137
(dp138
g12
g4
ssS'BRCA1'
p139
(dp140
S'G1763V'
p141
g4
sS'C47G'
p142
g14
sS'V1808A'
p143
g20
sS'V1736G'
p144
g4
sS'M1628V'
p145
g4
sS'V1665M'
p146
g20
sS'E23fs'
p147
g14
sS'F1761S'
p148
g14
sS'T1700A'
p149
g14
sS'V1714G'
p150
g4
sS'F1761I'
p151
g4
sS'C64G'
p152
g14
sS'S1140G'
p153
g20
sS'C27A'
p154
g14
sS'E1586G'
p155
g20
sS'V1653M'
p156
g4
sS'N1819S'
p157
g20
sS'S4F'
p158
g91
sS'V1688del'
p159
g4
sS'N1819Y'
p160
g91
sS'M1689R'
p161
g4
sS'M1689T'
p162
g4
sS'D1778Y'
p163
g20
sS'S4P'
p164
g91
sS'C1767S'
p165
g20
sS'V1809F'
p166
g4
sS'V1741G'
p167
g4
sS'E1644G'
p168
g20
sS'D1818G'
p169
g91
sS'S1715C'
p170
g4
sS'V1809A'
p171
g20
sS'Q1756C'
p172
g4
sS'M1411T'
p173
g91
sS'S1715N'
p174
g14
sS'N1730S'
p175
g20
sS'T47D'
p176
g20
sS'R133H'
p177
g33
sS'D1778N'
p178
g20
sS'S1101N'
p179
g20
sS'C24Y'
p180
g91
sS'C39R'
p181
g91
sS'R71G'
p182
g91
sS'M1663K'
p183
g20
sS'P1749R'
p184
g14
sS'C39Y'
p185
g14
sS'C24R'
p186
g14
sS'L1407P'
p187
g4
sS'T77M'
p188
g91
sS'K50E'
p189
g91
sS'K38N'
p190
g91
sS'L668F'
p191
g20
sS'P1856S'
p192
g20
sS'N1236K'
p193
g20
sS'V191D'
p194
g20
sS'E1250K'
p195
g20
sS'E1346K'
p196
g20
sS'L246V'
p197
g20
sS'H1402Y'
p198
g20
sS'N132K'
p199
g33
sS'M1R'
p200
g4
sS'S1164I'
p201
g4
sS'L28P'
p202
g91
sS'W1837G'
p203
g4
sS'P798L'
p204
g20
sS'A1752V'
p205
g4
sS'L52F'
p206
g33
sS'M1400V'
p207
g91
sS'H1746Q'
p208
g91
sS'A1752P'
p209
g14
sS'S59R'
p210
g91
sS'K50L'
p211
g91
sS'R1699W'
p212
g14
sS'F1704S'
p213
g4
sS'R1699Q'
p214
g14
sS'S1297del'
p215
g20
sS'W1782C'
p216
g20
sS'Y179C'
p217
g91
sS'R1699L'
p218
g4
sS'V1810G'
p219
g4
sS'K1702E'
p220
g4
sS'H1686R'
p221
g4
sS'H1686Q'
p222
g14
sS'R841Q'
p223
g20
sS'G1738E'
p224
g14
sS'H1746N'
p225
g4
sS'A1789S'
p226
g20
sS'R866C'
p227
g20
sS'D1739V'
p228
g14
sS'S1651F'
p229
g33
sS'R496C'
p230
g20
sS'D1546N'
p231
g91
sS'W1837R'
p232
g14
sS'I26N'
p233
g91
sS'C1787S'
p234
g20
sS'S1651P'
p235
g91
sS'T1685I'
p236
g14
sS'E1836K'
p237
g4
sS'W1837C'
p238
g4
sS'P1856T'
p239
g91
sS'M18T'
p240
g14
sS'V191I'
p241
g20
sS'G1743R'
p242
g4
sS'L147F'
p243
g20
sS'V1833M'
p244
g4
sS'E143K'
p245
g20
sS'V1833E'
p246
g4
sS'L63F'
p247
g91
sS'R1751P'
p248
g4
sS'R1751Q'
p249
g20
sg69
g20
sS'N1647K'
p250
g20
sS'S308A'
p251
g91
sS'E1660G'
p252
g4
sS'K56N'
p253
g91
sS'N550H'
p254
g20
sS'R170Q'
p255
g33
sS'Q1811R'
p256
g4
sS'C44F'
p257
g14
sS'I89T'
p258
g91
sS'R1726G'
p259
g20
sS'L1780P'
p260
g14
sS'M1008I'
p261
g20
sS'I31M'
p262
g33
sS'I42V'
p263
g33
sS'I15T'
p264
g91
sS'D67Y'
p265
g33
sS'A1708V'
p266
g4
sS'T1852S'
p267
g91
sS'I89N'
p268
g91
sS'D1739Y'
p269
g4
sS'A1789T'
p270
g14
sS'G1770V'
p271
g14
sS'S1613C'
p272
g20
sS'P1771R'
p273
g20
sS'R1589P'
p274
g20
sS'S1613G'
p275
g20
sS'P142H'
p276
g33
sS'K45Q'
p277
g20
sS'F1662S'
p278
g20
sS'R1758G'
p279
g91
sS'K45T'
p280
g91
sS'R1835P'
p281
g4
sS'P1812S'
p282
g91
sS'K45N'
p283
g91
sg3
g4
sS'L1267S'
p284
g20
sS'P1806A'
p285
g20
sS'D1778H'
p286
g91
sS'P1771L'
p287
g20
sS'T1691K'
p288
g4
sS'R1589H'
p289
g20
sS'L165P'
p290
g20
sS'V1804A'
p291
g91
sg12
g4
sS'A1669S'
p292
g20
sS'V1804D'
p293
g91
sS'L82P'
p294
g91
sS'Y1853*'
p295
g14
sS'P1614S'
p296
g20
sS'S1301R'
p297
g20
sS'A1843T'
p298
g4
sS'F1734S'
p299
g4
sS'V1378I'
p300
g20
sS'C360R'
p301
g20
sS'M1783T'
p302
g91
sS'D1778G'
p303
g20
sS'A1823T'
p304
g20
sS'Q1826H'
p305
g20
sS'Y1853C'
p306
g14
sS'E1794D'
p307
g20
sS'H41R'
p308
g14
sS'G1788D'
p309
g4
sS'R1753T'
p310
g14
sS'C1697R'
p311
g14
sS'A1843P'
p312
g4
sS'V1736A'
p313
g14
sS'E29V'
p314
g91
sS'Q1785H'
p315
g20
sS'P1637L'
p316
g20
sS'C44Y'
p317
g14
sS'G1738R'
p318
g14
sS'E1735K'
p319
g91
sS'M1783L'
p320
g20
sS'G1788V'
p321
g14
sS'F1695L'
p322
g20
sS'M1783I'
p323
g20
sS'D1739G'
p324
g14
sS'E1682V'
p325
g20
sS'D1739E'
p326
g4
sS'T1720A'
p327
g20
sS'L1844R'
p328
g20
sS'S1473P'
p329
g20
sS'L1854P'
p330
g4
sS'H1862L'
p331
g20
sS'S153R'
p332
g33
sS'T1720I'
p333
g20
sS'P1812R'
p334
g20
sS'L358R'
p335
g20
sS'P1776S'
p336
g91
sS'S1715R'
p337
g14
sS'I68K'
p338
g91
sS'N810Y'
p339
g20
sS'M1652K'
p340
g4
sS'T1685A'
p341
g4
sS'E1682K'
p342
g20
sS'G1803A'
p343
g4
sS'A1830T'
p344
g20
sS'S1497A'
p345
g20
sS'Y105C'
p346
g33
sS'D245V'
p347
g20
sS'S1655F'
p348
g14
sS'G1656D'
p349
g4
sS'T37R'
p350
g14
sS'E60L'
p351
g91
sS'V1838E'
p352
g4
sS'D1344H'
p353
g91
sS'S72R'
p354
g91
sS'V271L'
p355
g33
sS'E1214K'
p356
g20
sS'I1766S'
p357
g14
sS'I1807S'
p358
g4
sS'D96N'
p359
g91
sS'S1722F'
p360
g14
sS'W1718L'
p361
g4
sS'M1652T'
p362
g91
sS'V1534M'
p363
g20
sS'Q12Y'
p364
g91
sS'E1060A'
p365
g20
sS'W1718C'
p366
g14
sS'A1708E'
p367
g14
sS'V1713A'
p368
g14
sS'T1691I'
p369
g4
sS'S1486C'
p370
g20
sS'M18K'
p371
g91
sS'Y1703H'
p372
g4
sS'H1805P'
p373
g20
sS'Q1756fs'
p374
g14
sS'P1859R'
p375
g20
sS'I21V'
p376
g33
sS'S1512I'
p377
g20
sS'I90T'
p378
g91
sS'Y1703S'
p379
g4
sS'F79S'
p380
g91
sS'K65M'
p381
g91
sS'H1421Y'
p382
g20
sS'D1692N'
p383
g20
sS'S186Y'
p384
g33
sS'S1841A'
p385
g4
sS'L1657P'
p386
g4
sS'M1775E'
p387
g4
sS'E1282V'
p388
g20
sS'E362H'
p389
g20
sS'M1775K'
p390
g14
sS'C61G'
p391
g14
sS'L1764P'
p392
g14
sS'C39S'
p393
g91
sS'S1841N'
p394
g4
sS'L1705P'
p395
g4
sS'S1841R'
p396
g4
sS'M1775V'
p397
g20
sS'G1706A'
p398
g33
sS'G1706E'
p399
g14
sS'V11A'
p400
g91
sS'D1733G'
p401
g20
ssS'PIK3CA'
p402
(dp403
S'A1020V'
p404
g20
sS'Q546K'
p405
g8
sg7
g38
sS'V344G'
p406
g91
sS'R93W'
p407
g8
sS'E116K'
p408
g20
sS'H1047R'
p409
g8
sS'R115L'
p410
g20
sS'C378R'
p411
g38
sS'R93Q'
p412
g38
sS'I391M'
p413
g20
sS'H1047L'
p414
g8
sS'P449_L455del'
p415
g8
sS'K111E'
p416
g8
sS'E365K'
p417
g8
sS'Q546P'
p418
g8
sS'Q546R'
p419
g8
sS'K111N'
p420
g38
sS'E542Q'
p421
g38
sS'P539R'
p422
g8
sS'R88Q'
p423
g8
sS'T1025S'
p424
g8
sS'G106D'
p425
g38
sS'R38H'
p426
g8
sS'C420R'
p427
g8
sS'H701P'
p428
g20
sS'M1043V'
p429
g8
sS'M1043I'
p430
g8
sS'E81K'
p431
g38
sS'G106V'
p432
g8
sS'E542G'
p433
g91
sS'D350G'
p434
g8
sS'D1029Y'
p435
g38
sS'A1066V'
p436
g20
sS'N1068fs*4'
p437
g8
sS'V344A'
p438
g38
sS'R108H'
p439
g8
sS'Q546E'
p440
g8
sS'G118D'
p441
g8
sg262
g20
sS'N345I'
p442
g38
sS'G914R'
p443
g38
sS'E579K'
p444
g38
sS'E542K'
p445
g8
sS'N1044K'
p446
g8
sS'P449T'
p447
g8
sS'E545Q'
p448
g8
sS'G106_R108del'
p449
g38
sS'E542V'
p450
g8
sS'H1047Y'
p451
g8
sS'Q60K'
p452
g20
sS'E545G'
p453
g8
sS'E545A'
p454
g8
sS'E453A'
p455
g38
sS'E545K'
p456
g8
sS'E78K'
p457
g91
ssS'PIK3CB'
p458
(dp459
S'D1067Y'
p460
g8
sS'E552K'
p461
g8
sg66
g38
sS'R48W'
p462
g38
sS'D1067V'
p463
g8
sS'D1067A'
p464
g8
sS'ACPP-PIK3CB Fusion'
p465
g38
sS'N553S'
p466
g38
sS'E1051K'
p467
g38
sS'E633K'
p468
g38
ssS'MAP3K1'
p469
(dp470
S'T779fs'
p471
g4
sS'E1286V'
p472
g20
sg12
g91
sS'T1481fs'
p473
g4
ssS'EIF1AX'
p474
(dp475
S'A113_splice'
p476
g8
ssS'INPP4B'
p477
(dp478
g12
g4
ssS'WHSC1L1'
p479
(dp480
g7
g91
ssS'GATA3'
p481
(dp482
g7
g38
sg12
g4
sS'R177Pfs*126'
p483
g14
ssS'FGFR2'
p484
(dp485
S'C382R'
p486
g8
sS'N549K'
p487
g8
sS'M391R'
p488
g8
sS'G701S'
p489
g91
sS'N549S'
p490
g8
sS'I642V'
p491
g4
sS'K526E'
p492
g38
sS'L617M'
p493
g8
sS'N549T'
p494
g8
sS'R251Q'
p495
g4
sS'L770V'
p496
g91
sS'D101Y'
p497
g38
sS'FGFR2?PPHLN1 Fusion'
p498
g8
sS'FGFR2-CCDC6 Fusion'
p499
g8
sS'G271E'
p500
g4
sS'K517R'
p501
g4
sS'P253R'
p502
g8
sS'V564I'
p503
g8
sS'V755I'
p504
g20
sS'E731K'
p505
g8
sS'FGFR2-AHCYL1 Fusion'
p506
g8
sS'S252W'
p507
g8
sS'A648T'
p508
g4
sS'E475K'
p509
g20
sS'V248D'
p510
g91
sS'T730S'
p511
g20
sS'FGFR2-MGEA5 Fusion'
p512
g38
sS'M535I'
p513
g8
sS'E219K'
p514
g4
sS'K310R'
p515
g20
sS'FGFR2-TACC3 Fusion'
p516
g8
sS'R203C'
p517
g8
sS'W290_I291delinsC'
p518
g8
sS'K525E'
p519
g8
sS'L617F'
p520
g8
sS'K659E'
p521
g38
sS'FGFR2-FAM76A Fusion'
p522
g8
sS'FGFR2-BICC1 Fusion'
p523
g8
sg66
g38
sS'FGFR2-KIAA1967 Fusion'
p524
g38
sS'A389T'
p525
g20
sS'K659N'
p526
g8
sS'K641R'
p527
g8
sS'E636K'
p528
g91
sS'E565G'
p529
g8
sS'S267_D273dup'
p530
g8
sS'T341P'
p531
g8
sS'C278F'
p532
g4
sS'Y375C'
p533
g8
sS'K641N'
p534
g38
ssS'GLI1'
p535
(dp536
S'R380A'
p537
g4
ssS'CDH1'
p538
(dp539
S'D254N'
p540
g14
sS'A298T'
p541
g4
sS'D257N'
p542
g4
sS'A617T'
p543
g14
sS'Epigenetic Silencing'
p544
g4
sS'R732Q'
p545
g4
sS'A634V'
p546
g14
sS'T340A'
p547
g14
sg3
g4
ssS'PPP6C'
p548
(dp549
S'R264C'
p550
g14
sS'H114Y'
p551
g14
sS'P186S'
p552
g14
sS'S270L'
p553
g14
ssS'MYC'
p554
(dp555
S'PVT1-MYC Fusion'
p556
g38
sg7
g8
sg66
g38
sS'IGK-MYC Fusion'
p557
g8
sS'IGL-MYC Fusion'
p558
g8
sS'IGH-MYC Fusion'
p559
g8
sS'T73I'
p560
g38
sS'MYC-nick'
p561
g91
ssS'YAP1'
p562
(dp563
g66
g38
sg7
g8
sS'YAP1-MAMLD1 Fusion'
p564
g38
sS'YAP1-FAM118B Fusion'
p565
g38
ssS'BTK'
p566
(dp567
S'C481S'
p568
g8
sS'Y551F'
p569
g14
sS'R544S'
p570
g38
ssS'NF2'
p571
(dp572
g12
g4
sS'A211D'
p573
g4
sS'T352M'
p574
g20
sS'L535P'
p575
g4
sS'K413E'
p576
g91
sS'Q538P'
p577
g4
sS'K79E'
p578
g4
sS'L64P'
p579
g4
sS'L46R'
p580
g4
sS'E106G'
p581
g4
sS'Q324L'
p582
g20
ssS'CDKN2B'
p583
(dp584
S'A23E'
p585
g14
sg12
g4
sS'P40T'
p586
g14
sS'E35*'
p587
g14
sS'Hypermethylation'
p588
g14
sS'D86N'
p589
g14
sg3
g14
ssS'ERBB3'
p590
(dp591
g7
g8
sS'A232V'
p592
g8
sS'Q809R'
p593
g8
sS'P262H'
p594
g8
sS'G284R'
p595
g8
sS'V714M'
p596
g20
sS'S846I'
p597
g8
sS'R669C'
p598
g91
sS'A1131T'
p599
g91
sS'T389K'
p600
g8
sS'V104M'
p601
g8
ssS'IGF1R'
p602
(dp603
S'M1255I'
p604
g38
sS'A1374V'
p605
g38
sS'G1125A'
p606
g4
ssS'CDKN2A'
p607
(dp608
S'H83N'
p609
g14
sS'M53I'
p610
g14
sS'R87P'
p611
g14
sS'D74N'
p612
g14
sS'D84N'
p613
g14
sS'I49S'
p614
g14
sS'G67R'
p615
g14
sS'G67S'
p616
g14
sS'D74Y'
p617
g14
sS'P48L'
p618
g14
sS'T77P'
p619
g14
sS'E88K'
p620
g14
sS'R87L'
p621
g14
sg12
g4
sS'V126D'
p622
g14
sS'A36P'
p623
g14
sS'P81T'
p624
g14
sS'A57V'
p625
g14
sS'P114L'
p626
g14
sS'P114S'
p627
g14
sS'Q50P'
p628
g14
sS'P81L'
p629
g14
sS'E69G'
p630
g14
sS'G93W'
p631
g14
sS'A60V'
p632
g14
sS'R24P'
p633
g14
sS'V118D'
p634
g14
sS'G35R'
p635
g14
sS'R80L'
p636
g14
sS'Q50*'
p637
g14
sS'D108H'
p638
g4
sS'A148T'
p639
g91
sS'D108N'
p640
g4
sS'G35A'
p641
g14
sS'G23D'
p642
g14
sS'R112G'
p643
g14
sS'H83Y'
p644
g14
sS'R80P'
p645
g4
sS'D84Y'
p646
g14
sS'S56I'
p647
g14
sS'N71S'
p648
g14
sS'R99P'
p649
g14
sS'D84V'
p650
g14
sS'G101W'
p651
g14
sS'L32P'
p652
g14
sg3
g14
sS'D84H'
p653
g14
sS'L97R'
p654
g14
sS'R79P'
p655
g14
sS'D84G'
p656
g14
sS'N71K'
p657
g14
sS'N71I'
p658
g14
ssS'PIK3R1'
p659
(dp660
S'X475_splice'
p661
g14
sS'L370fs'
p662
g4
sS'E137K'
p663
g4
sS'R574fs'
p664
g14
sS'E160*'
p665
g14
sg3
g4
sS'X582_splice'
p666
g4
sS'N564D'
p667
g14
sS'K288Q'
p668
g4
sS'X434_splice'
p669
g14
sS'K379E'
p670
g14
sS'T576del'
p671
g14
sS'R348*'
p672
g14
sS'W237_Y242del'
p673
g4
sS'G376R'
p674
g14
sS'R162*'
p675
g4
sS'K459_S460delinsN'
p676
g14
sS'R262T'
p677
g4
sS'I559_D560insDKRMNS'
p678
g14
sS'E439del'
p679
g14
sS'Q579_L581del'
p680
g14
sS'E218*'
p681
g4
sS'D560Y'
p682
g14
sS'N564K'
p683
g14
ssS'ERBB4'
p684
(dp685
S'K935I'
p686
g8
sS'Y285C'
p687
g8
sS'G785S'
p688
g91
sS'M887I'
p689
g91
sS'E317K'
p690
g8
sg66
g38
sS'R838Q'
p691
g91
sS'V348L'
p692
g33
sS'EZR-ERBB4 Fusion'
p693
g8
sS'N181S'
p694
g33
sS'E836K'
p695
g8
sS'E452K'
p696
g8
sS'G936R'
p697
g91
sS'R306S'
p698
g8
sS'E872K'
p699
g8
sS'D595V'
p700
g8
sS'R544W'
p701
g8
sg445
g8
sS'T244R'
p702
g33
sS'E563K'
p703
g8
ssS'BARD1'
p704
(dp705
g3
g4
ssS'IDH2'
p706
(dp707
S'R172S'
p708
g68
sS'R172M'
p709
g36
sS'R140Q'
p710
g68
sS'R172G'
p711
g36
sS'R172K'
p712
g68
ssS'IDH1'
p713
(dp714
S'R132G'
p715
g68
sS'G70D'
p716
g14
sS'V294M'
p717
g20
sS'R132C'
p718
g68
sS'I99M'
p719
g20
sS'Y139D'
p720
g8
sS'G123R'
p721
g14
sS'R132H'
p722
g68
sS'I130M'
p723
g20
sS'A134D'
p724
g14
sS'R132Q'
p725
g36
sS'H133Q'
p726
g20
sS'P33S'
p727
g20
sS'R100A'
p728
g68
sS'R49C'
p729
g14
sS'E190K'
p730
g20
ssS'NUP93'
p731
(dp732
S'K442Nfs*'
p733
g4
sS'G591V'
p734
g33
sS'Exon 13 deletion'
p735
g4
ssS'RET'
p736
(dp737
S'Y791F'
p738
g8
sS'V804M'
p739
g8
sS'V804L'
p740
g38
sS'RET-CCDC6 Fusion'
p741
g8
sS'C609Y'
p742
g8
sS'V804G'
p743
g4
sS'V648I'
p744
g20
sS'E921K'
p745
g14
sS'K603Q'
p746
g38
sS'R886W'
p747
g8
sS'M980T'
p748
g20
sS'S891A'
p749
g8
sS'Y806C'
p750
g38
sS'A883T'
p751
g8
sS'E632_L633del'
p752
g8
sS'R833C'
p753
g38
sS'S904F'
p754
g38
sS'S765P'
p755
g14
sS'M918V'
p756
g38
sS'A883F'
p757
g8
sS'A919V'
p758
g38
sS'C620R'
p759
g8
sS'C618R'
p760
g8
sS'C634Y'
p761
g8
sS'C634W'
p762
g38
sS'C634S'
p763
g8
sS'C634R'
p764
g8
sS'L790F'
p765
g8
sS'C630R'
p766
g8
sS'KIF5B-RET Fusion'
p767
g8
sS'C611Y'
p768
g8
sS'E768D'
p769
g38
sg66
g38
sS'T338I'
p770
g20
sS'D631G'
p771
g20
sS'D631A'
p772
g20
sS'R873Q'
p773
g14
sS'I852M'
p774
g38
sS'F893L'
p775
g14
sS'R897Q'
p776
g14
ssS'BRD4'
p777
(dp778
g7
g8
sS'BRD4-NUT Fusion'
p779
g8
ssS'PMS1'
p780
(dp781
S'Q233*'
p782
g14
ssS'MDM2'
p783
(dp784
g7
g8
ssS'SETD2'
p785
(dp786
S'R1625C'
p787
g14
sg12
g4
sg3
g14
ssS'MDM4'
p788
(dp789
g7
g8
ssS'FGFR3'
p790
(dp791
S'C582F'
p792
g20
sg7
g8
sS'G382D'
p793
g38
sS'IGH-FGFR3 Fusion'
p794
g8
sS'Y373C'
p795
g8
sS'R669G'
p796
g8
sS'K508M'
p797
g91
sS'G380R'
p798
g8
sS'K650E'
p799
g8
sS'F384L'
p800
g20
sS'K650M'
p801
g38
sS'K650N'
p802
g38
sS'V677I'
p803
g20
sS'K650T'
p804
g38
sS'K650Q'
p805
g38
sS'E627D'
p806
g20
sS'D641N'
p807
g8
sS'K650R'
p808
g38
sS'G370C'
p809
g8
sS'Y647C'
p810
g38
sS'D641G'
p811
g8
sS'A500T'
p812
g20
sS'R248C'
p813
g8
sS'V555M'
p814
g8
sS'S249C'
p815
g8
sS'S371C'
p816
g8
sS'H643D'
p817
g20
sS'FGFR3 - BAIAP2L1 Fusion'
p818
g8
sS'A391E'
p819
g8
sS'E466K'
p820
g20
sS'G375C'
p821
g8
sS'I538V'
p822
g8
sg66
g38
sS'G697C'
p823
g20
sS'D646Y'
p824
g20
sS'N540S'
p825
g8
sS'G637W'
p826
g4
sS'D617G'
p827
g4
sS'N653H'
p828
g20
ssS'RAF1'
p829
(dp830
g7
g8
sS'ESRP1-RAF1 Fusion'
p831
g8
sS'ATG7-RAF1 Fusion'
p832
g38
sg66
g38
sS'I448V'
p833
g8
sS'S259A'
p834
g8
sS'S259F'
p835
g8
sS'SRGAP3-RAF1 Fusion'
p836
g8
sS'S257W'
p837
g8
sS'P261L'
p838
g38
sS'S259P'
p839
g8
sS'S427G'
p840
g8
ssS'FGFR1'
p841
(dp842
S'ERLIN2?FGFR1 Fusion'
p843
g8
sg7
g8
sS'CUX1-FGFR1 Fusion'
p844
g8
sS'E664K'
p845
g4
sg66
g38
sS'BCR-FGFR1 Fusion'
p846
g8
sS'A263V'
p847
g20
sS'K656E'
p848
g8
sS'CEP110-FGFR1 Fusion'
p849
g8
sS'N546K'
p850
g8
sS'FGFR1-TACC1 Fusion'
p851
g8
sS'FGFR1OP1-FGFR1 Fusion'
p852
g8
sS'ZNF198-FGFR1 Fusion'
p853
g8
ssS'MYD88'
p854
(dp855
S'M232T'
p856
g8
sS'L265P'
p857
g8
sS'S243N'
p858
g8
ssS'CCND1'
p859
(dp860
S'P287A'
p861
g8
sS'D289del'
p862
g8
sg7
g8
sS'T286A'
p863
g8
sS'256_286trunc'
p864
g8
sS'T286I'
p865
g8
sS'P287S'
p866
g38
sg12
g38
sS'D289_D292del'
p867
g38
sS'P287T'
p868
g8
sS'C47S'
p869
g8
sS'L283_D294del'
p870
g38
sS'CCND1-IGH Fusion'
p871
g8
ssS'ARID1B'
p872
(dp873
g12
g4
sg3
g4
ssS'ARID1A'
p874
(dp875
g12
g4
ssS'CCND2'
p876
(dp877
g7
g38
ssS'B2M'
p878
(dp879
g12
g4
sS'M1K'
p880
g14
sg200
g14
sS'M1T'
p881
g14
sg3
g4
sS'M1V'
p882
g14
ssS'TCF7L2'
p883
(dp884
g12
g4
ssS'KIT'
p885
(dp886
g7
g38
sS'T417_D419delinsI'
p887
g8
sS'R796G'
p888
g14
sS'N655K'
p889
g38
sS'Y553N'
p890
g38
sS'R634W'
p891
g8
sS'T574_R588delinsL'
p892
g38
sS'V559C'
p893
g38
sS'N463S'
p894
g38
sS'D814V'
p895
g8
sS'E839K'
p896
g33
sS'W557G'
p897
g38
sS'A502_Y503dup'
p898
g8
sS'H697Y'
p899
g8
sS'K550_K558del'
p900
g8
sS'N505I'
p901
g8
sS'W557R'
p902
g8
sS'T670I'
p903
g8
sS'C443Y'
p904
g8
sS'M552_K558del'
p905
g38
sS'K558_V559del'
p906
g38
sS'D816V'
p907
g8
sS'D816Y'
p908
g8
sS'D816F'
p909
g8
sS'D816G'
p910
g8
sS'P551_E554del'
p911
g8
sS'D816E'
p912
g38
sS'P577_D579del'
p913
g38
sS'D816A'
p914
g38
sS'D737N'
p915
g91
sS'V569_L576del'
p916
g38
sS'D816H'
p917
g8
sS'P838L'
p918
g38
sS'K558_E562del'
p919
g38
sS'C809G'
p920
g38
sS'W557_K558del'
p921
g8
sS'I653T'
p922
g38
sS'A829P'
p923
g38
sS'P551_W557delinsL'
p924
g38
sS'I563_L576del'
p925
g38
sS'T417_D419delinsRG'
p926
g8
sS'V555_V559del'
p927
g8
sS'K509I'
p928
g8
sS'D60N'
p929
g8
sS'K550_V555delinsI'
p930
g8
sS'T574insTQLPYD'
p931
g38
sS'N564_Y578del'
p932
g38
sS'Y823D'
p933
g8
sS'V560G'
p934
g8
sS'V560D'
p935
g8
sS'V560E'
p936
g38
sS'P573_D579del'
p937
g8
sS'E554_I571del'
p938
g38
sS'N822Y'
p939
g38
sS'V654A'
p940
g8
sS'W557_V559delinsC'
p941
g38
sS'S501_A502dup'
p942
g8
sS'N822I'
p943
g8
sS'N822H'
p944
g8
sS'Y570H'
p945
g38
sS'P577_W582delinsPYD'
p946
g38
sS'D579del'
p947
g38
sS'K558delinsNP'
p948
g8
sS'V559G'
p949
g8
sS'V559D'
p950
g8
sS'Y578C'
p951
g8
sS'Exon 9 mutations'
p952
g8
sS'V559A'
p953
g38
sS'V555_L576del'
p954
g8
sS'V559del'
p955
g8
sS'550_592del'
p956
g8
sS'V559_V560del'
p957
g8
sS'Y553_Q556del'
p958
g8
sS'D419del'
p959
g8
sS'F522C'
p960
g8
sS'W557_V560del'
p961
g38
sS'E490K'
p962
g38
sS'D820G'
p963
g38
sS'Y553_K558del'
p964
g38
sS'Q556_K558del'
p965
g38
sS'M552_W557del'
p966
g38
sS'D816N'
p967
g8
sS'E554_K558del'
p968
g38
sS'Y418_D419del'
p969
g8
sS'L576del'
p970
g8
sS'A504_Y505ins'
p971
g38
sS'S476I'
p972
g8
sS'K558N'
p973
g38
sS'K642E'
p974
g8
sS'D820A'
p975
g38
sS'M541L'
p976
g38
sS'D820E'
p977
g38
sS'K550_W557del'
p978
g8
sS'Exon 11 mutations'
p979
g8
sS'P551_V555del'
p980
g8
sS'V852I'
p981
g38
sS'D572A'
p982
g8
sS'E554_V559del'
p983
g38
sS'L576P'
p984
g8
ssS'FOXA1'
p985
(dp986
g7
g8
sS'L388M'
p987
g4
sS'L455M'
p988
g4
sS'M253K'
p989
g4
sS'G87R'
p990
g4
sS'F400I'
p991
g4
sS'S453fs*'
p992
g38
sg3
g4
ssS'PTEN'
p993
(dp994
S'R130A'
p995
g14
sS'R130G'
p996
g14
sS'G127E'
p997
g14
sS'T167A'
p998
g14
sS'G127N'
p999
g14
sS'R130L'
p1000
g14
sS'T401I'
p1001
g14
sS'H93Q'
p1002
g14
sS'H93R'
p1003
g14
sS'G165E'
p1004
g14
sS'A34D'
p1005
g14
sS'H93D'
p1006
g14
sS'F241S'
p1007
g14
sS'F21A'
p1008
g14
sS'T160I'
p1009
g14
sS'I122L'
p1010
g14
sS'A126G'
p1011
g14
sS'A126D'
p1012
g14
sS'I122V'
p1013
g33
sS'I122S'
p1014
g14
sS'A126S'
p1015
g14
sS'A126V'
p1016
g14
sS'H118P'
p1017
g14
sS'R130*'
p1018
g14
sS'R173P'
p1019
g14
sS'H61R'
p1020
g14
sS'H61D'
p1021
g14
sS'R173H'
p1022
g14
sS'L325F'
p1023
g14
sS'C105F'
p1024
g14
sS'Y174N'
p1025
g14
sS'R173C'
p1026
g14
sS'A121P'
p1027
g14
sS'D92G'
p1028
g14
sS'D92E'
p1029
g14
sS'D92H'
p1030
g14
sS'D92N'
p1031
g14
sS'V343E'
p1032
g14
sS'G251C'
p1033
g14
sS'S362L'
p1034
g20
sS'V343L'
p1035
g14
sS'Y68H'
p1036
g14
sS'G165V'
p1037
g14
sS'T131A'
p1038
g14
sS'C124N'
p1039
g14
sS'G165R'
p1040
g14
sS'F154L'
p1041
g14
sS'T131I'
p1042
g14
sS'Y68D'
p1043
g14
sS'T131L'
p1044
g14
sS'T131S'
p1045
g33
sS'C124S'
p1046
g14
sS'C124R'
p1047
g14
sS'F347L'
p1048
g14
sS'D162G'
p1049
g14
sS'I33del'
p1050
g14
sS'K342N'
p1051
g14
sS'D162H'
p1052
g14
sS'D252G'
p1053
g14
sS'C136R'
p1054
g14
sS'C136Y'
p1055
g14
sS'Y155C'
p1056
g14
sS'K128T'
p1057
g14
sS'K128Q'
p1058
g14
sS'K128N'
p1059
g14
sS'Y27S'
p1060
g14
sS'D92A'
p1061
g14
sS'G20E'
p1062
g14
sS'P96Q'
p1063
g14
sg3
g14
sS'M199del'
p1064
g14
sS'A121V'
p1065
g33
sS'L112P'
p1066
g14
sS'L112R'
p1067
g14
sg12
g4
sS'L345Q'
p1068
g14
sS'N48K'
p1069
g14
sS'S10N'
p1070
g14
sS'K62R'
p1071
g14
sS'R130K'
p1072
g14
sS'D24Y'
p1073
g14
sS'I32del'
p1074
g14
sS'Y16C'
p1075
g14
sS'D331G'
p1076
g14
sS'M134L'
p1077
g14
sS'K125M'
p1078
g14
sS'Q110R'
p1079
g20
sS'L108P'
p1080
g14
sS'S227F'
p1081
g14
sS'L181P'
p1082
g14
sS'D107Y'
p1083
g14
sS'D92V'
p1084
g14
sS'R159G'
p1085
g14
sS'R161G'
p1086
g14
sS'A121E'
p1087
g14
sS'M35R'
p1088
g14
sS'K125R'
p1089
g33
sS'F341V'
p1090
g14
sS'K125L'
p1091
g14
sS'L23F'
p1092
g14
sS'K125E'
p1093
g14
sS'D326N'
p1094
g14
sS'P38L'
p1095
g4
sS'H123Y'
p1096
g14
sS'H123Q'
p1097
g14
sS'R15K'
p1098
g14
sS'R15S'
p1099
g8
sS'H123D'
p1100
g14
sS'C71Y'
p1101
g14
sS'V369G'
p1102
g33
sS'Y65C'
p1103
g14
sS'P95L'
p1104
g14
sS'E157G'
p1105
g14
sS'T319del'
p1106
g14
sS'P95S'
p1107
g14
sS'S170R'
p1108
g14
sS'I168F'
p1109
g14
sS'G129E'
p1110
g14
sS'G129A'
p1111
g4
sS'K289E'
p1112
g14
sS'A39P'
p1113
g14
sS'N276S'
p1114
g14
sS'S170N'
p1115
g14
sS'V217D'
p1116
g14
sS'G129R'
p1117
g14
sS'P169H'
p1118
g14
ssS'FAT1'
p1119
(dp1120
S'A4419S'
p1121
g4
sg12
g4
sS'P4309A'
p1122
g4
sg3
g14
ssS'RUNX1'
p1123
(dp1124
g7
g8
sS'H78Q'
p1125
g14
sS'D171G'
p1126
g4
sS'RUNX1-RUNX1T1 Fusion'
p1127
g14
sS'D171N'
p1128
g14
sS'P173S'
p1129
g14
sS'R177*'
p1130
g14
sg12
g4
sS'G42R'
p1131
g91
sS'TEL-RUNX1 Fusion'
p1132
g14
sS'A122*'
p1133
g4
sS'R80C'
p1134
g14
sS'W279*'
p1135
g4
sS'R166Q'
p1136
g14
sS'S70fsX93'
p1137
g14
sS'R174*'
p1138
g8
sS'R201Q'
p1139
g14
sS'K83N'
p1140
g14
sS'R139G'
p1141
g14
sS'Y113*'
p1142
g14
sS'R177Q'
p1143
g14
sg66
g4
sS'K83E'
p1144
g14
sS'RUNX1-EVI1 Fusion'
p1145
g14
ssS'WHSC1'
p1146
(dp1147
S'E1099K'
p1148
g8
ssS'APC'
p1149
(dp1150
S'N1026S'
p1151
g14
sS'I1307K'
p1152
g4
sS'R640G'
p1153
g14
sg3
g4
sS'A290T'
p1154
g4
ssS'CCND3'
p1155
(dp1156
S'P284L'
p1157
g38
sg863
g8
sS'I290A'
p1158
g38
sS'T283A'
p1159
g8
sS'Q276*'
p1160
g8
sg7
g38
sS'I290R'
p1161
g38
ssS'CTCF'
p1162
(dp1163
S'H284N'
p1164
g4
sg12
g4
sS'R339W'
p1165
g68
sg3
g4
sS'H284P'
p1166
g4
ssS'KDM5C'
p1167
(dp1168
S'V1075Yfs*2'
p1169
g14
sS'D402Y'
p1170
g14
sS'P480L'
p1171
g14
sg9
g38
sS'M1_E165DEL'
p1172
g14
ssS'IL7R'
p1173
(dp1174
S'T244_I245insCPT'
p1175
g8
ssS'DNMT3B'
p1176
(dp1177
S'DNMT3B7'
p1178
g36
sg7
g38
ssS'BRCA2'
p1179
(dp1180
S'C1265S'
p1181
g91
sS'N588D'
p1182
g91
sS'S1424C'
p1183
g91
sS'S1172L'
p1184
g20
sS'V2908G'
p1185
g20
sS'F1524V'
p1186
g91
sS'L209F'
p1187
g20
sS'I2627F'
p1188
g4
sS'N1878K'
p1189
g91
sS'D935N'
p1190
g91
sS'D806H'
p1191
g91
sS'N372H'
p1192
g20
sS'Y3092C'
p1193
g91
sS'Y42C'
p1194
g20
sS'D1280V'
p1195
g91
sS'S869L'
p1196
g91
sS'R1190W'
p1197
g91
sS'E2856A'
p1198
g20
sS'W2626C'
p1199
g91
sS'M2676T'
p1200
g91
sS'Q2858R'
p1201
g91
sS'V1643A'
p1202
g91
sS'R2842H'
p1203
g91
sS'S1670A'
p1204
g91
sS'L2396F'
p1205
g91
sS'D3170G'
p1206
g91
sS'R2842C'
p1207
g4
sS'T3349A'
p1208
g91
sS'E3002K'
p1209
g4
sS'H2074N'
p1210
g91
sS'P375S'
p1211
g91
sS'R2502H'
p1212
g91
sS'L2721H'
p1213
g91
sS'H1966Y'
p1214
g91
sS'A1170V'
p1215
g91
sS'E462G'
p1216
g20
sS'S2670L'
p1217
g20
sS'R2304C'
p1218
g91
sS'K2950N'
p1219
g20
sS'R2502C'
p1220
g91
sS'N987I'
p1221
g91
sS'E2663V'
p1222
g4
sS'L1019V'
p1223
g91
sS'K1434I'
p1224
g91
sS'I2285V'
p1225
g20
sS'N2113S'
p1226
g91
sS'K2729N'
p1227
g20
sS'R2520Q'
p1228
g20
sS'K513R'
p1229
g20
sS'N1228D'
p1230
g91
sS'V894I'
p1231
g91
sS'N56T'
p1232
g91
sS'R2418G'
p1233
g91
sS'R2973C'
p1234
g20
sS'G2274V'
p1235
g91
sS'L2865V'
p1236
g20
sS'Q2384K'
p1237
g91
sS'A75P'
p1238
g91
sS'A2770T'
p1239
g91
sS'T3211K'
p1240
g91
sS'R2336P'
p1241
g4
sS'R18H'
p1242
g91
sS'D3095E'
p1243
g4
sS'I1349T'
p1244
g91
sS'R2318Q'
p1245
g91
sS'N319T'
p1246
g20
sg3
g14
sS'R2336H'
p1247
g14
sS'T630I'
p1248
g91
sS'A2351G'
p1249
g91
sS'R174C'
p1250
g4
sS'D2312V'
p1251
g91
sS'G1194D'
p1252
g91
sS'C1365Y'
p1253
g91
sS'G602R'
p1254
g91
sS'S326R'
p1255
g91
sS'D2665G'
p1256
g20
sS'K2411T'
p1257
g91
sS'Y3098H'
p1258
g91
sS'V2969M'
p1259
g91
sS'K2472T'
p1260
g91
sS'M784V'
p1261
g91
sS'Q1396R'
p1262
g91
sS'N1102Y'
p1263
g91
sS'K1690N'
p1264
g91
sS'G1529R'
p1265
g91
sS'V3079I'
p1266
g91
sS'A2643G'
p1267
g20
sS'R3052Q'
p1268
g91
sS'R3052W'
p1269
g4
sS'L2106P'
p1270
g91
sS'K607T'
p1271
g91
sS'D1352Y'
p1272
g91
sS'T2722R'
p1273
g91
sS'S206C'
p1274
g4
sS'T2681R'
p1275
g91
sS'P655R'
p1276
g91
sS'V1306I'
p1277
g91
sS'D1420Y'
p1278
g91
sS'P168T'
p1279
g91
sS'D2723G'
p1280
g4
sS'N2436I'
p1281
g91
sS'D2723H'
p1282
g4
sS'H1918Y'
p1283
g91
sS'S196N'
p1284
g4
sS'A2717S'
p1285
g91
sS'T582P'
p1286
g91
sS'T1354M'
p1287
g91
sS'G2748D'
p1288
g4
sS'N517S'
p1289
g91
sS'T2250A'
p1290
g91
sS'R2888C'
p1291
g91
sS'S1733F'
p1292
g91
sS'R2784W'
p1293
g4
sS'I2675V'
p1294
g4
sS'L1904V'
p1295
g91
sS'R2659T'
p1296
g4
sS'S142I'
p1297
g4
sS'S384F'
p1298
g20
sS'R2659K'
p1299
g14
sS'C554W'
p1300
g91
sS'L929S'
p1301
g91
sS'S2483N'
p1302
g91
sS'R2602T'
p1303
g4
sS'P1819S'
p1304
g20
ssS'FOXP1'
p1305
(dp1306
S'R514C'
p1307
g4
sg12
g4
ssS'SDHC'
p1308
(dp1309
S'R133*'
p1310
g14
ssS'CDKN1B'
p1311
(dp1312
S'P133T'
p1313
g4
sg12
g4
sS'V109G'
p1314
g91
sg3
g14
ssS'CDKN1A'
p1315
(dp1316
g12
g4
sS'S31R'
p1317
g91
sg3
g4
ssS'RRAS2'
p1318
(dp1319
S'Q72L'
p1320
g8
ssS'CARM1'
p1321
(dp1322
S'S217A'
p1323
g4
sS'S217C'
p1324
g4
sS'S217T'
p1325
g4
ssS'RIT1'
p1326
(dp1327
S'A77T'
p1328
g38
sS'M90I'
p1329
g8
sS'A77P'
p1330
g8
sS'A77S'
p1331
g8
ssS'PTPN11'
p1332
(dp1333
S'D61Y'
p1334
g8
sS'R498L'
p1335
g91
sS'Y62C'
p1336
g8
sS'Q79R'
p1337
g38
sS'E76K'
p1338
g8
sg3
g14
sS'D61N'
p1339
g8
sS'T468M'
p1340
g14
sS'E76A'
p1341
g8
sS'M504V'
p1342
g8
sS'T507K'
p1343
g8
sS'D106A'
p1344
g8
sS'E69K'
p1345
g38
sS'Q510E'
p1346
g4
sS'Y63C'
p1347
g8
sS'V45L'
p1348
g8
sS'F71I'
p1349
g8
sS'A72V'
p1350
g8
sS'G503V'
p1351
g38
sS'P491S'
p1352
g38
sS'A72S'
p1353
g8
sS'S502T'
p1354
g8
sS'G464A'
p1355
g91
sS'E139D'
p1356
g38
sS'K590R'
p1357
g36
sg560
g8
ssS'CASP8'
p1358
(dp1359
g12
g4
sS'CASP8L'
p1360
g14
sS'C248T'
p1361
g33
sg3
g4
sS'G325A'
p1362
g8
sS'Promoter Hypermethylation'
p1363
g14
ssS'RICTOR'
p1364
(dp1365
g7
g8
ssS'KDM5A'
p1366
(dp1367
g7
g38
ssS'XPO1'
p1368
(dp1369
S'C528S'
p1370
g91
sS'E571K'
p1371
g38
ssS'MYCN'
p1372
(dp1373
S'P44L'
p1374
g38
sg7
g8
ssS'PPM1D'
p1375
(dp1376
S'422_605trunc'
p1377
g8
ssS'SRSF2'
p1378
(dp1379
S'P95H'
p1380
g14
ssS'ASXL1'
p1381
(dp1382
g3
g4
ssS'TSC2'
p1383
(dp1384
S'L844R'
p1385
g4
sS'W1610G'
p1386
g4
sS'L1584R'
p1387
g4
sS'L792R'
p1388
g14
sS'L448P'
p1389
g4
sS'C696Y'
p1390
g14
sS'L410R'
p1391
g14
sS'L493P'
p1392
g8
sS'L146R'
p1393
g4
sS'E1552del'
p1394
g14
sg3
g4
sS'T1203K'
p1395
g14
sS'L830R'
p1396
g14
sS'L826P'
p1397
g4
sS'Q1554H'
p1398
g4
sg12
g4
sS'R905G'
p1399
g14
sS'V769E'
p1400
g14
sS'S1653F'
p1401
g14
sS'L493V'
p1402
g4
sS'P1675L'
p1403
g14
sS'F615S'
p1404
g4
sS'R905Q'
p1405
g14
sS'A889P'
p1406
g14
sS'R611W'
p1407
g14
sS'R905W'
p1408
g14
sS'H597Y'
p1409
g14
sS'S1653P'
p1410
g14
sS'P1709L'
p1411
g4
sS'R462C'
p1412
g4
sS'G1567D'
p1413
g4
sS'V299G'
p1414
g4
sS'R611Q'
p1415
g14
sS'S1036P'
p1416
g4
sS'E75G'
p1417
g4
sS'V1673D'
p1418
g4
sS'V1673F'
p1419
g4
sS'T1623I'
p1420
g14
sS'V705M'
p1421
g14
sS'A614D'
p1422
g14
sS'S1498N'
p1423
g4
sS'V705E'
p1424
g14
sS'R1200W'
p1425
g14
sS'G1596V'
p1426
g4
sS'Q1503P'
p1427
g4
sS'H1620R'
p1428
g14
sS'Y598C'
p1429
g4
ssS'RASA1'
p1430
(dp1431
S'L481F'
p1432
g4
sS'Y472H'
p1433
g4
sg12
g4
sg3
g4
ssS'ASXL2'
p1434
(dp1435
g12
g4
ssS'JUN'
p1436
(dp1437
g7
g8
ssS'PIK3R3'
p1438
(dp1439
g12
g4
ssS'PIK3R2'
p1440
(dp1441
g7
g38
sS'A727V'
p1442
g20
sS'A171V'
p1443
g8
sS'D557H'
p1444
g4
sS'N561D'
p1445
g8
sS'G373R'
p1446
g8
sS'K376N'
p1447
g91
sS'S273C'
p1448
g20
ssS'H3F3A'
p1449
(dp1450
S'K28M'
p1451
g36
sg635
g36
sS'G35V'
p1452
g36
ssS'JAK1'
p1453
(dp1454
S'K1026E'
p1455
g8
sS'A634D'
p1456
g8
sS'K648N'
p1457
g8
sS'V658F'
p1458
g8
sS'R879C'
p1459
g8
sS'Y1035C'
p1460
g8
sS'Y652H'
p1461
g8
sS'G1079D'
p1462
g8
sS'L783F'
p1463
g8
sS'S646F'
p1464
g8
sS'S729C'
p1465
g8
sS'L910P'
p1466
g8
sS'R724H'
p1467
g8
sg12
g4
sS'F958S'
p1468
g8
sS'S703I'
p1469
g8
sS'A723D'
p1470
g8
sS'F958V'
p1471
g8
ssS'MSH2'
p1472
(dp1473
S'R389*'
p1474
g14
sS'A636P'
p1475
g4
sS'S860L'
p1476
g20
sS'Q337*'
p1477
g14
sS'R680*'
p1478
g14
sS'A272V'
p1479
g20
sS'W345*'
p1480
g14
sS'E483*'
p1481
g14
sS'R383*'
p1482
g14
sS'L390F'
p1483
g20
sS'D603N'
p1484
g14
sS'S723F'
p1485
g4
sg12
g4
sS'Q395*'
p1486
g14
sg3
g4
sS'D603G'
p1487
g91
sS'E580*'
p1488
g14
sS'R711*'
p1489
g14
sS'G751R'
p1490
g14
sS'Q816*'
p1491
g14
sS'Q429*'
p1492
g14
ssS'FLT1'
p1493
(dp1494
g7
g91
ssS'CHEK2'
p1495
(dp1496
S'E321K'
p1497
g14
sS'I157T'
p1498
g91
sS'P85L'
p1499
g33
sS'K373E'
p1500
g14
sS'R117G'
p1501
g14
sS'S428F'
p1502
g4
sS'E161del'
p1503
g14
ssS'CARD11'
p1504
(dp1505
S'D401N'
p1506
g8
sS'L232LI'
p1507
g38
sS'L225LI'
p1508
g8
sS'L251P'
p1509
g8
sS'F123I'
p1510
g8
sS'G123S'
p1511
g38
sS'E127G'
p1512
g8
sS'S250P'
p1513
g8
sS'G116S'
p1514
g8
sS'C49Y'
p1515
g8
sS'E626K'
p1516
g8
sS'D387V'
p1517
g38
ssS'CTLA4'
p1518
(dp1519
S'T17A'
p1520
g4
ssS'TCF3'
p1521
(dp1522
S'N551K'
p1523
g14
ssS'STAG2'
p1524
(dp1525
g12
g4
ssS'ARID2'
p1526
(dp1527
g12
g4
sg3
g4
ssS'PBRM1'
p1528
(dp1529
S'N1333Gfs*'
p1530
g14
sg12
g4
sg3
g4
ssS'RNF43'
p1531
(dp1532
g12
g4
ssS'VEGFA'
p1533
(dp1534
g7
g8
ssS'HRAS'
p1535
(dp1536
S'F28L'
p1537
g8
sg7
g38
sS'K117R'
p1538
g8
sS'Y64A'
p1539
g38
sS'G13V'
p1540
g38
sS'K117N'
p1541
g38
sS'G13C'
p1542
g38
sS'G13D'
p1543
g38
sS'A146T'
p1544
g8
sS'A146V'
p1545
g38
sS'Q61L'
p1546
g8
sS'Q61K'
p1547
g8
sS'Q61H'
p1548
g38
sS'A59T'
p1549
g38
sS'G13R'
p1550
g38
sS'P34R'
p1551
g38
sS'G12V'
p1552
g8
sS'G12S'
p1553
g8
sS'Q22K'
p1554
g38
sS'G12C'
p1555
g38
sS'G12A'
p1556
g38
sS'T58I'
p1557
g38
ssS'RAD21'
p1558
(dp1559
g12
g4
sg3
g4
ssS'RHOA'
p1560
(dp1561
S'T19N'
p1562
g14
sS'G17V'
p1563
g14
sg9
g8
sS'E40T'
p1564
g38
sS'E40N'
p1565
g36
sg1194
g14
sS'T37A'
p1566
g38
sS'E40W'
p1567
g4
sS'G17E'
p1568
g4
sS'E40L'
p1569
g38
sg7
g8
sS'G17A'
p1570
g14
sS'E40Q'
p1571
g38
sS'Y34C'
p1572
g38
sS'G14V'
p1573
g14
sS'R5Q'
p1574
g4
sS'L57V'
p1575
g14
ssS'FGF4'
p1576
(dp1577
g7
g91
ssS'FGF3'
p1578
(dp1579
g7
g91
ssS'PAX8'
p1580
(dp1581
S'PAX8-PPAR? Fusion'
p1582
g8
ssS'KEAP1'
p1583
(dp1584
S'R320Q'
p1585
g14
sS'S243C'
p1586
g14
sg12
g4
sS'G333S'
p1587
g14
sS'G430C'
p1588
g14
sS'G186R'
p1589
g14
sS'R272C'
p1590
g14
sS'V155F'
p1591
g14
sS'G480W'
p1592
g4
sS'R415G'
p1593
g14
sS'G423V'
p1594
g14
sg3
g4
sS'R470C'
p1595
g14
sS'D422N'
p1596
g14
ssS'ETV1'
p1597
(dp1598
g66
g38
sS'TMPRSS2-ETV1 Fusion'
p1599
g8
sS'EWSR1-ETV1 Fusion'
p1600
g8
ssS'EPAS1'
p1601
(dp1602
S'534_536del'
p1603
g38
sS'P531L'
p1604
g38
sS'P531A'
p1605
g38
sS'A530T'
p1606
g38
sS'P531S'
p1607
g38
sS'A530V'
p1608
g38
sS'Y532C'
p1609
g38
sS'533_534del'
p1610
g38
ssS'MGA'
p1611
(dp1612
g12
g4
sg3
g4
ssS'TP53'
p1613
(dp1614
S'V274F'
p1615
g4
sS'L145R'
p1616
g14
sS'P278A'
p1617
g4
sS'P278L'
p1618
g14
sS'P316L'
p1619
g4
sS'P278R'
p1620
g14
sS'P278S'
p1621
g14
sS'R282W'
p1622
g4
sS'R282Q'
p1623
g4
sS'I195T'
p1624
g4
sS'S121A'
p1625
g38
sS'R158L'
p1626
g14
sS'Y163C'
p1627
g14
sS'C277R'
p1628
g4
sS'Y234H'
p1629
g14
sS'C277Q'
p1630
g4
sS'C277W'
p1631
g4
sS'R273C'
p1632
g4
sS'R273G'
p1633
g4
sS'H193P'
p1634
g14
sS'R273H'
p1635
g14
sS'R273L'
p1636
g14
sS'H193N'
p1637
g14
sS'R213Q'
p1638
g14
sS'R290G'
p1639
g4
sS'G356A'
p1640
g91
sS'F134Y'
p1641
g4
sS'I162M'
p1642
g4
sS'S241F'
p1643
g4
sS'H214N'
p1644
g4
sS'P219S'
p1645
g14
sS'E285K'
p1646
g4
sS'K292T'
p1647
g4
sS'N235D'
p1648
g14
sS'L348S'
p1649
g4
sS'A161T'
p1650
g4
sS'K292I'
p1651
g38
sS'E285V'
p1652
g14
sS'H214R'
p1653
g4
sS'H214Q'
p1654
g4
sS'G245D'
p1655
g4
sS'E326L'
p1656
g14
sS'G245A'
p1657
g4
sS'Y220S'
p1658
g14
sS'R337P'
p1659
g4
sS'I251S'
p1660
g4
sS'Y236S'
p1661
g14
sS'P250L'
p1662
g4
sS'Q144R'
p1663
g4
sS'G334R'
p1664
g33
sS'C141Y'
p1665
g4
sS'G245S'
p1666
g14
sS'R267P'
p1667
g38
sS'Y220C'
p1668
g14
sS'Y236D'
p1669
g14
sS'Y236C'
p1670
g14
sS'P153H'
p1671
g4
sS'DNA binding domain insertions'
p1672
g14
sS'G199R'
p1673
g4
sS'L348F'
p1674
g4
sS'K291Q'
p1675
g4
sS'H168R'
p1676
g14
sS'V197L'
p1677
g4
sS'K291E'
p1678
g4
sS'R158C'
p1679
g4
sS'H168N'
p1680
g4
sS'V143A'
p1681
g4
sS'R283Q'
p1682
g4
sS'R342P'
p1683
g14
sS'K120E'
p1684
g14
sS'A161S'
p1685
g14
sS'K120N'
p1686
g14
sS'G266R'
p1687
g14
sS'V173E'
p1688
g14
sS'Q331R'
p1689
g4
sS'Q331H'
p1690
g4
sS'M237K'
p1691
g4
sS'P152L'
p1692
g4
sS'G266E'
p1693
g4
sS'R290H'
p1694
g4
sS'R280A'
p1695
g4
sS'H179Q'
p1696
g14
sS'R337H'
p1697
g4
sS'DNA binding domain missense mutations'
p1698
g14
sS'H179Y'
p1699
g14
sS'C176F'
p1700
g14
sS'R337C'
p1701
g14
sS'V197E'
p1702
g4
sS'D186A'
p1703
g4
sS'H179N'
p1704
g4
sS'H179L'
p1705
g14
sS'R267Q'
p1706
g4
sS'T123A'
p1707
g20
sS'R248W'
p1708
g14
sg12
g4
sS'R248Q'
p1709
g4
sS'Y234C'
p1710
g14
sS'P151S'
p1711
g14
sS'P151H'
p1712
g4
sS'T150I'
p1713
g4
sS'R248L'
p1714
g4
sS'S240R'
p1715
g4
sS'P151A'
p1716
g14
sS'R248K'
p1717
g4
sS'R156C'
p1718
g4
sS'C229R'
p1719
g4
sS'S215C'
p1720
g4
sS'S215G'
p1721
g14
sS'R156H'
p1722
g14
sS'V173L'
p1723
g14
sS'F212Y'
p1724
g91
sS'G244D'
p1725
g4
sS'P47S'
p1726
g33
sS'DNA binding domain deletions'
p1727
g14
sS'S121C'
p1728
g91
sS'H297N'
p1729
g20
sS'E221Q'
p1730
g91
sS'R337L'
p1731
g4
sS'G244R'
p1732
g14
sS'G244S'
p1733
g14
sS'S241Y'
p1734
g14
sS'S241T'
p1735
g14
sS'K120M'
p1736
g14
sS'A347T'
p1737
g4
sS'R202S'
p1738
g4
sS'R280K'
p1739
g14
sS'N239S'
p1740
g14
sS'R280T'
p1741
g4
sS'F341C'
p1742
g4
sS'C242S'
p1743
g14
sS'R181C'
p1744
g14
sS'V272L'
p1745
g4
sS'R181L'
p1746
g4
sS'C238S'
p1747
g14
sS'R181H'
p1748
g14
sS'C135Y'
p1749
g68
sS'M133T'
p1750
g4
sS'F328V'
p1751
g4
sS'C242F'
p1752
g4
sS'H233N'
p1753
g4
sS'C238F'
p1754
g14
sS'C135S'
p1755
g4
sS'C135R'
p1756
g14
sS'R110P'
p1757
g4
sS'R158H'
p1758
g14
sS'L330R'
p1759
g4
sS'H115N'
p1760
g91
sS'H179R'
p1761
g14
sS'C275S'
p1762
g14
sS'V157D'
p1763
g14
sS'V157F'
p1764
g4
sS'R110L'
p1765
g4
sS'I255F'
p1766
g4
sS'E286K'
p1767
g14
sS'L344P'
p1768
g14
sS'R249W'
p1769
g14
sS'L344R'
p1770
g4
sS'R249S'
p1771
g4
sS'R175L'
p1772
g14
sS'R175H'
p1773
g14
sS'E258V'
p1774
g4
sS'R249M'
p1775
g14
sS'R175C'
p1776
g4
ssS'GNAQ'
p1777
(dp1778
S'Q209L'
p1779
g8
ssS'ETV6'
p1780
(dp1781
S'R369Q'
p1782
g4
sS'R369W'
p1783
g4
sS'ETV6-FLT3 Fusion'
p1784
g8
sg66
g38
sS'385_418del'
p1785
g14
sS'R418G'
p1786
g14
sS'ETV6-NTRK3 Fusion'
p1787
g8
sS'P214L'
p1788
g14
ssS'DDR2'
p1789
(dp1790
g7
g38
sS'G774V'
p1791
g8
sS'L239R'
p1792
g8
sS'I638F'
p1793
g91
sS'T654I'
p1794
g91
sS'T654M'
p1795
g91
sS'G505S'
p1796
g8
sS'L63V'
p1797
g8
sS'G253C'
p1798
g8
ssS'MPL'
p1799
(dp1800
S'S505N'
p1801
g38
sS'P106L'
p1802
g38
sS'W515L'
p1803
g8
sS'W515K'
p1804
g38
ssS'CBL'
p1805
(dp1806
S'K382E'
p1807
g14
sS'Y371H'
p1808
g14
sS'C396R'
p1809
g14
sS'P428L'
p1810
g20
sS'R420Q'
p1811
g14
sS'Y371S'
p1812
g14
sS'Q249E'
p1813
g38
sg3
g4
sS'H94Y'
p1814
g91
sS'V391I'
p1815
g14
sg12
g4
sS'S376F'
p1816
g14
sS'Q367P'
p1817
g14
sS'C384R'
p1818
g14
sS'H398Y'
p1819
g14
sS'V430M'
p1820
g20
sS'P417A'
p1821
g14
sS'W802*'
p1822
g38
sS'C381A'
p1823
g14
sS'D390Y'
p1824
g14
sS'N454D'
p1825
g33
sS'P395A'
p1826
g14
sS'M374V'
p1827
g20
sS'L399V'
p1828
g14
sS'G375P'
p1829
g14
ssS'PAK1'
p1830
(dp1831
g7
g8
ssS'MAP2K2'
p1832
(dp1833
S'S222D'
p1834
g91
sS'F57C'
p1835
g8
sS'V35M'
p1836
g8
sS'C125S'
p1837
g8
sS'E207K'
p1838
g8
sS'S226D'
p1839
g91
sS'F57L'
p1840
g38
sS'L46F'
p1841
g8
sS'F57V'
p1842
g38
sS'K101M'
p1843
g91
sS'N126D'
p1844
g8
ssS'MEF2B'
p1845
(dp1846
g7
g38
sS'Y69H'
p1847
g14
sS'N81Y'
p1848
g14
sS'E77K'
p1849
g14
sS'K4E'
p1850
g14
sS'D83V'
p1851
g8
ssS'SHQ1'
p1852
(dp1853
g3
g4
ssS'PRDM1'
p1854
(dp1855
S'C569Y'
p1856
g14
sS'P48R'
p1857
g14
sS'P48T'
p1858
g14
sS'Y149D'
p1859
g14
sg3
g4
ssS'NFE2L2'
p1860
(dp1861
S'E82D'
p1862
g38
sS'E82G'
p1863
g8
sS'E82V'
p1864
g38
sS'I28T'
p1865
g8
sS'V32G'
p1866
g8
sS'G81D'
p1867
g8
sS'W24S'
p1868
g8
sS'W24R'
p1869
g8
sS'E79Q'
p1870
g8
sS'T80A'
p1871
g8
sS'G81R'
p1872
g8
sS'G81S'
p1873
g8
sS'W24C'
p1874
g8
sS'T80K'
p1875
g8
sS'E79K'
p1876
g8
sS'D29H'
p1877
g8
sS'G31A'
p1878
g8
sS'T80R'
p1879
g8
sS'D29Y'
p1880
g8
sS'G31V'
p1881
g8
sS'L30F'
p1882
g8
sS'G31R'
p1883
g8
ssS'NSD1'
p1884
(dp1885
g66
g38
sS'NSD1-NUP98 Fusion'
p1886
g38
ssS'CREBBP'
p1887
(dp1888
g12
g4
sS'R1563S'
p1889
g20
sS'Q1500P'
p1890
g20
sg3
g4
sS'R1446H'
p1891
g4
sS'R1446C'
p1892
g4
sS'W1502A'
p1893
g14
ssS'AGO2'
p1894
(dp1895
S'Q545A'
p1896
g4
sg7
g38
sS'R583A'
p1897
g4
sS'R812A'
p1898
g4
sS'R647A'
p1899
g4
ssS'PDGFRB'
p1900
(dp1901
S'EBF1-PDGFRB Fusion'
p1902
g8
sg7
g91
sS'R987W'
p1903
g4
sS'ETV6-PDGFRB Fusion'
p1904
g8
sS'NIN-PDGFRB Fusion'
p1905
g38
sS'ATF7IP-PDGFRB Fusion'
p1906
g38
sS'WDR48-PDGFRB Fusion'
p1907
g38
sS'GPIAP1-PDGFRB Fusion'
p1908
g38
sS'R561C'
p1909
g91
sS'PRKG2-PDGFRB Fusion'
p1910
g38
sS'GOLGA4-PDGFRB Fusion'
p1911
g38
sS'SPTBN1-PDGFRB Fusion'
p1912
g38
sS'HIP1-PDGFRB Fusion'
p1913
g8
sS'E1071W'
p1914
g4
sS'PDE4DIP-PDGFRB Fusion'
p1915
g38
sS'BIN2-PDGFRB Fusion'
p1916
g38
sS'TP53BP1-PDGFRB Fusion'
p1917
g38
sS'GIT2-PDGFRB Fusion'
p1918
g38
sS'KANK1-PDGFRB Fusion'
p1919
g8
sS'V665A'
p1920
g14
sg66
g38
sS'CEP85L-PDGFRB Fusion'
p1921
g38
sS'KIAA1509-PDGFRB Fusion'
p1922
g38
ssS'PDGFRA'
p1923
(dp1924
S'N659K'
p1925
g8
sg7
g8
sS'E311_K312del'
p1926
g8
sS'H845Y'
p1927
g8
sS'S478P'
p1928
g20
sS'C456_N468del'
p1929
g8
sS'N870S'
p1930
g33
sS'C450_K451insMIEWMI'
p1931
g8
sS'560_561insER'
p1932
g8
sS'C456_R481del'
p1933
g8
sS'I843_D846del'
p1934
g8
sS'Q579R'
p1935
g8
sS'F808L'
p1936
g14
sS'N659S'
p1937
g8
sS'N659R'
p1938
g8
sS'S566_E571delinsR'
p1939
g8
sS'STRN-PDGFRA Fusion'
p1940
g8
sS'K830R'
p1941
g33
sS'KIF5B-PDGFRA Fusion'
p1942
g8
sS'G829R'
p1943
g33
sS'V561A'
p1944
g38
sS'V544_L545insAVLVLLVIVIISLI'
p1945
g8
sS'KDR-PDGFRA Fusion'
p1946
g8
sS'Y849S'
p1947
g8
sS'G853D'
p1948
g8
sS'L507P'
p1949
g20
sS'H650Q'
p1950
g8
sS'V561_I562insER'
p1951
g8
sS'P130S'
p1952
g20
sS'H570R'
p1953
g33
sS'N848K'
p1954
g8
sS'Y849C'
p1955
g8
sS'I834V'
p1956
g33
sS'D842Y'
p1957
g8
sS'BCR-PDGFRA Fusion'
p1958
g8
sS'D846Y'
p1959
g8
sS'V658A'
p1960
g8
sS'ETV6-PDGFRA Fusion'
p1961
g8
sS'P577S'
p1962
g8
sS'Y375_K455del'
p1963
g8
sS'D1071N'
p1964
g33
sS'D842V'
p1965
g8
sS'D842I'
p1966
g8
sS'D842_H845del'
p1967
g8
sS'Y555C'
p1968
g8
sS'V561D'
p1969
g8
sS'I562M'
p1970
g33
sS'R841K'
p1971
g8
sS'V536E'
p1972
g8
sS'I843del'
p1973
g8
sS'H845_N848delinsP'
p1974
g8
sS'T674I'
p1975
g38
sS'R481G'
p1976
g20
sS'S584L'
p1977
g8
sS'W349C'
p1978
g4
sS'A633T'
p1979
g38
sS'A633V'
p1980
g33
sS'D842_M844del'
p1981
g8
sS'E996K'
p1982
g33
sS'R748G'
p1983
g8
ssS'PMS2'
p1984
(dp1985
S'I18V'
p1986
g33
sS'R20Q'
p1987
g14
sS'R315*'
p1988
g4
sg12
g4
sS'E41A'
p1989
g14
sS'E5K'
p1990
g20
sS'G857A'
p1991
g20
sS'G207E'
p1992
g4
sS'L585I'
p1993
g20
sS'R421*'
p1994
g4
sS'I668V'
p1995
g14
sS'E541K'
p1996
g20
sS'S46N'
p1997
g14
sS'R802*'
p1998
g4
sS'T485K'
p1999
g20
sS'S46I'
p2000
g14
ssS'MAP2K1'
p2001
(dp2002
S'I103N'
p2003
g8
sS'I111P'
p2004
g38
sS'L37P'
p2005
g38
sg7
g91
sS'F53S'
p2006
g8
sS'K59del'
p2007
g8
sS'D67N'
p2008
g8
sS'E102_I103del'
p2009
g8
sS'N382H'
p2010
g20
sS'I111A'
p2011
g38
sS'I111R'
p2012
g38
sS'E144K'
p2013
g8
sS'F53C'
p2014
g38
sS'F53L'
p2015
g8
sS'D65N'
p2016
g20
sS'P306H'
p2017
g8
sS'I111N'
p2018
g91
sS'K57E'
p2019
g8
sS'P124Q'
p2020
g8
sS'P124S'
p2021
g8
sS'V60E'
p2022
g38
sS'E120Q'
p2023
g20
sS'K57T'
p2024
g8
sS'Y130C'
p2025
g8
sS'G128V'
p2026
g38
sS'Q56P'
p2027
g8
sS'T28I'
p2028
g38
sS'P124L'
p2029
g8
sg1834
g8
sS'Q56_V60del'
p2030
g8
sS'R47Q'
p2031
g8
sS'L115R'
p2032
g91
sS'V60M'
p2033
g8
sS'Q58_E62del'
p2034
g8
sS'E203K'
p2035
g8
sS'C121S'
p2036
g8
sS'I204T'
p2037
g8
sS'F129L'
p2038
g8
sS'K97M'
p2039
g14
sS'R49L'
p2040
g8
sS'S123T'
p2041
g8
sS'V211D'
p2042
g91
sS'P387S'
p2043
g20
ssS'PPP2R1A'
p2044
(dp2045
S'P179L'
p2046
g4
sS'R183Q'
p2047
g4
sS'R183P'
p2048
g4
sS'S256W'
p2049
g4
sS'R182W'
p2050
g4
sS'W257C'
p2051
g4
sS'R258H'
p2052
g91
sS'W257G'
p2053
g8
sS'P179R'
p2054
g4
sS'S256F'
p2055
g4
sS'R183G'
p2056
g4
sS'R258C'
p2057
g91
ssS'SMAD4'
p2058
(dp2059
S'R420H'
p2060
g20
sS'G508S'
p2061
g4
sS'E330G'
p2062
g4
sS'D357Y'
p2063
g14
sS'V465M'
p2064
g91
sS'V370D'
p2065
g4
sg3
g14
sS'R441P'
p2066
g20
sS'E330K'
p2067
g14
sg12
g4
sS'W398V'
p2068
g91
sS'R496H'
p2069
g14
sS'K507Q'
p2070
g4
sg1952
g14
sS'K507A'
p2071
g4
sS'G419V'
p2072
g14
sS'D493A'
p2073
g4
sS'R361C'
p2074
g14
sS'R100T'
p2075
g14
sS'A532H'
p2076
g14
sS'R497H'
p2077
g14
sS'R515G'
p2078
g14
sS'K428A'
p2079
g4
sS'L43V'
p2080
g4
sS'W509R'
p2081
g91
sS'D537Y'
p2082
g14
sS'H132Y'
p2083
g4
sS'Y353L'
p2084
g4
sS'Y513A'
p2085
g91
sS'R378A'
p2086
g4
sS'D351H'
p2087
g14
sS'C324Y'
p2088
g4
sS'D537E'
p2089
g14
ssS'PIK3CD'
p2090
(dp2091
S'N334K'
p2092
g8
sS'E1021K'
p2093
g8
sS'E525K'
p2094
g8
ssS'JAK2'
p2095
(dp2096
S'R683T'
p2097
g91
sg7
g8
sS'R683S'
p2098
g8
sS'SPAG9-JAK2 Fusion'
p2099
g38
sS'R683K'
p2100
g8
sS'F1061W'
p2101
g91
sS'PCM1-JAK2 Fusion'
p2102
g8
sS'ATF7IP-JAK2 Fusion'
p2103
g8
sS'PAX5-JAK2 Fusion'
p2104
g8
sS'R683G'
p2105
g8
sS'I1018W'
p2106
g91
sS'Y1045W'
p2107
g91
sS'S1039F'
p2108
g91
sS'TEL-JAK2 Fusion'
p2109
g8
sS'K539L'
p2110
g8
sS'H538Q'
p2111
g8
sS'BCR-JAK2 Fusion'
p2112
g8
sS'I1018F'
p2113
g91
sS'L611V'
p2114
g38
sS'L1026F'
p2115
g91
sg760
g8
sS'S1025C'
p2116
g91
sS'T875N'
p2117
g8
sS'Y1045*'
p2118
g91
sS'W1038C'
p2119
g91
sS'Y931C'
p2120
g91
sS'N542_E543del'
p2121
g8
sS'SSBP2-JAK2 Fusion'
p2122
g38
sg66
g38
sS'V1075F'
p2123
g91
sS'D544H'
p2124
g91
sS'L983F'
p2125
g91
sS'F537_K539delinsL'
p2126
g8
ssS'ATM'
p2127
(dp2128
g12
g4
sS'E1978*'
p2129
g4
sS'N2875K'
p2130
g14
sS'D2870A'
p2131
g14
sg3
g4
sS'D1853N'
p2132
g20
ssS'SMAD2'
p2133
(dp2134
S'W368H'
p2135
g20
sS'K375A'
p2136
g91
sS'R321Q'
p2137
g14
sS'K420A'
p2138
g4
sS'D300H'
p2139
g4
sS'F346V'
p2140
g20
sS'Y426A'
p2141
g4
sS'D300N'
p2142
g4
sS'R428A'
p2143
g91
sS'P305L'
p2144
g4
sS'T413N'
p2145
g4
sS'D450E'
p2146
g4
sg3
g14
sS'D450H'
p2147
g4
sS'R310H'
p2148
g4
sS'N387P'
p2149
g91
sS'V319D'
p2150
g4
sS'Y406H'
p2151
g91
sS'S276L'
p2152
g4
ssS'SMAD3'
p2153
(dp2154
S'R292A'
p2155
g4
sS'Y297A'
p2156
g4
sS'Y384A'
p2157
g4
sS'Y238A'
p2158
g4
sS'R243A'
p2159
g4
sg3
g4
sS'P336S'
p2160
g14
sS'R373Q'
p2161
g14
sS'K341A'
p2162
g4
sS'V356R'
p2163
g4
sS'D258N'
p2164
g14
sS'R287A'
p2165
g14
sS'R268A'
p2166
g14
sS'V277D'
p2167
g14
sS'D408Y'
p2168
g14
sS'D408E'
p2169
g14
sS'S425C'
p2170
g14
sS'W406A'
p2171
g4
sS'E239A'
p2172
g14
sS'R373H'
p2173
g4
sS'D408H'
p2174
g14
sS'Y298A'
p2175
g4
sS'Y237A'
p2176
g33
ssS'SMO'
p2177
(dp2178
g7
g91
sS'E518K'
p2179
g20
sS'Q635E'
p2180
g38
sS'S387N'
p2181
g8
sS'V414A'
p2182
g38
sS'D473H'
p2183
g38
sS'D473G'
p2184
g38
sS'T241M'
p2185
g8
sS'E518A'
p2186
g91
sS'F460L'
p2187
g8
sS'L412F'
p2188
g8
sS'I408V'
p2189
g8
sS'Q477E'
p2190
g38
sS'L221R'
p2191
g38
sS'H231R'
p2192
g38
sS'A459V'
p2193
g8
sS'N219D'
p2194
g38
sS'K575M'
p2195
g38
sS'D384N'
p2196
g38
sS'W535L'
p2197
g8
sS'V321M'
p2198
g8
ssS'POLE'
p2199
(dp2200
S'L424V'
p2201
g14
sS'V411L'
p2202
g14
sS'P286H'
p2203
g14
sS'S279Y'
p2204
g4
sS'F367S'
p2205
g14
sS'S459del'
p2206
g4
sS'P286R'
p2207
g14
sS'S459F'
p2208
g14
sS'L424I'
p2209
g14
sS'S297F'
p2210
g4
ssS'ATR'
p2211
(dp2212
g12
g4
ssS'NTRK2'
p2213
(dp2214
g66
g38
sS'R715G'
p2215
g20
sS'M713I'
p2216
g4
ssS'PIM1'
p2217
(dp2218
S'L193F'
p2219
g4
sS'N82K'
p2220
g4
sS'E135K'
p2221
g91
sS'P123M'
p2222
g20
sS'E142D'
p2223
g91
sS'H68Y'
p2224
g38
sS'E124Q'
p2225
g91
sS'Y53H'
p2226
g91
ssS'ABL1'
p2227
(dp2228
S'L384M'
p2229
g38
sS'BCR-ABL1 Fusion'
p2230
g8
sS'H396R'
p2231
g38
sS'H396P'
p2232
g38
sS'E281K'
p2233
g38
sS'L248V'
p2234
g38
sS'E355A'
p2235
g38
sS'M244V'
p2236
g38
sS'T315I'
p2237
g38
sS'V379I'
p2238
g38
sS'Y253H'
p2239
g38
sS'F359C'
p2240
g38
sS'Y253F'
p2241
g8
sS'Q252H'
p2242
g38
sS'V289F'
p2243
g38
sS'L387M'
p2244
g38
sS'E255V'
p2245
g38
sS'V299L'
p2246
g38
sS'G250E'
p2247
g38
sS'E459K'
p2248
g38
sS'F317L'
p2249
g38
sS'E255K'
p2250
g38
sS'F311L'
p2251
g38
sS'E279K'
p2252
g38
sg66
g38
sS'M351T'
p2253
g38
ssS'BRIP1'
p2254
(dp2255
g12
g4
sS'A349P'
p2256
g4
sS'M299I'
p2257
g91
sS'P47A'
p2258
g14
sg3
g4
sg1026
g14
sS'K52R'
p2259
g14
ssS'NTRK3'
p2260
(dp2261
g66
g38
sS'G623R'
p2262
g38
sS'BTBD1-NTRK3 Fusion'
p2263
g8
sS'CPEB1-NTRK3 Fusion'
p2264
g8
sg1787
g8
ssS'IKZF1'
p2265
(dp2266
g3
g14
ssS'FLT3'
p2267
(dp2268
S'D324N'
p2269
g33
sS'D835Y'
p2270
g8
sS'Y599_D600insEYEYEYEY'
p2271
g8
sS'L611_E612insCSSDNEYFYVDFREYEYDLKWEFPRENL'
p2272
g8
sg998
g33
sg7
g8
sS'Y842C'
p2273
g8
sS'D835E'
p2274
g8
sS'E598_Y599insGLVQVTGSSDNEYFYVDFREYE'
p2275
g8
sS'Y599_D600insSTDNEYFYVDFREYEY'
p2276
g8
sS'F691L'
p2277
g8
sS'I867S'
p2278
g8
sS'E612_F613insGYVDFREYEYDLKWEFRPRENLEF'
p2279
g8
sS'Y364H'
p2280
g33
sS'Y599_D600insGLYVDFREYEY'
p2281
g8
sS'F594_R595insSDNEYFYVDF'
p2282
g8
sS'M737I'
p2283
g33
sS'F594L'
p2284
g8
sS'M664I'
p2285
g38
sS'F590G'
p2286
g8
sS'A627T'
p2287
g38
sS'V592A'
p2288
g8
sS'G831E'
p2289
g33
sS'W603_E604insDREYEYDLKW'
p2290
g8
sS'N676S'
p2291
g38
sS'D600_L601insFREYEYD'
p2292
g8
sS'L601_K602insREYEYDL'
p2293
g8
sS'N676K'
p2294
g8
sS'E598_Y599insDVDFREYE'
p2295
g8
sS'S451F'
p2296
g8
sS'Y572C'
p2297
g8
sS'V557I'
p2298
g33
sS'N676D'
p2299
g38
sS'D839G'
p2300
g8
sS'V579A'
p2301
g8
sS'D835N'
p2302
g8
sS'D835H'
p2303
g8
sS'N841I'
p2304
g8
sS'I836del'
p2305
g8
sS'Y591D'
p2306
g8
sS'D835A'
p2307
g8
sS'FLT3 internal tandem duplications'
p2308
g8
sS'D835del'
p2309
g8
sS'Y599F'
p2310
g4
sS'V194M'
p2311
g33
sS'Y599_D600insPAPQIMSTSTLISENMNIA'
p2312
g8
sS'R834Q'
p2313
g8
sS'S840_N841insGS'
p2314
g8
sS'S451E'
p2315
g8
ssS'NCOR1'
p2316
(dp2317
g12
g4
ssS'TSC1'
p2318
(dp2319
S'H68R'
p2320
g4
sS'V220F'
p2321
g4
sS'F158C'
p2322
g14
sS'H105R'
p2323
g14
sS'L191H'
p2324
g14
sS'V128del'
p2325
g14
sS'T417I'
p2326
g33
sS'G305W'
p2327
g33
sS'L117P'
p2328
g14
sS'M224R'
p2329
g14
sS'R1097H'
p2330
g33
sg12
g4
sS'S35Q'
p2331
g14
sS'G305R'
p2332
g33
sS'G1035S'
p2333
g33
sS'R246K'
p2334
g33
sS'L180P'
p2335
g14
sS'K82T'
p2336
g20
sS'N198_F199delinsI'
p2337
g14
sS'H206D'
p2338
g14
ssS'STAT3'
p2339
(dp2340
g800
g38
sS'Y640F'
p2341
g8
sS'D661Y'
p2342
g8
sS'F384Y'
p2343
g38
sS'S614R'
p2344
g8
sS'D661V'
p2345
g8
sS'H410R'
p2346
g8
sS'F384V'
p2347
g38
ssS'NPM1'
p2348
(dp2349
g12
g4
sg3
g4
ssS'BCL10'
p2350
(dp2351
g12
g4
sg3
g4
ssS'FGF19'
p2352
(dp2353
g7
g38
ssS'RBM10'
p2354
(dp2355
S'V354E'
p2356
g14
sg12
g4
sg3
g4
ssS'FANCC'
p2357
(dp2358
g12
g4
ssS'FANCA'
p2359
(dp2360
g12
g4
sS'S1088F'
p2361
g4
sS'L210R'
p2362
g14
sS'L274P'
p2363
g14
sS'Y510C'
p2364
g14
sg3
g4
sS'W183A'
p2365
g14
sS'H492R'
p2366
g14
sS'S858R'
p2367
g14
ssS'HLA-B'
p2368
(dp2369
g12
g4
ssS'KDM6A'
p2370
(dp2371
g12
g4
sg3
g4
ssS'HLA-A'
p2372
(dp2373
S'596_619splice'
p2374
g4
sg12
g4
ssS'MAPK1'
p2375
(dp2376
g7
g8
sS'E322K'
p2377
g8
ssS'FBXW7'
p2378
(dp2379
S'G423R'
p2380
g4
sS'R658Q'
p2381
g4
sS'R465H'
p2382
g14
sS'S562L'
p2383
g33
sS'R689Q'
p2384
g4
sS'R479Q'
p2385
g14
sS'Copy Number Loss'
p2386
g14
sS'R482Q'
p2387
g14
sS'T205A'
p2388
g38
sS'S227A'
p2389
g14
sS'I347M'
p2390
g20
sS'R479H'
p2391
g14
sS'K11R'
p2392
g4
sg3
g4
sS'R479L'
p2393
g14
sS'D520N'
p2394
g4
sS'R505C'
p2395
g14
sS'R505L'
p2396
g14
sS'S462Y'
p2397
g20
ssS'TGFBR2'
p2398
(dp2399
g3
g4
sg12
g4
sS'D404G'
p2400
g14
sS'R537P'
p2401
g38
sS'P525L'
p2402
g14
ssS'TGFBR1'
p2403
(dp2404
S'G52R'
p2405
g14
sS'S241L'
p2406
g4
sS'TGFBR1*6A'
p2407
g14
sS'P83L'
p2408
g14
sS'C41Y'
p2409
g14
sS'S387Y'
p2410
g14
sS'R487Q'
p2411
g4
sS'N45S'
p2412
g14
ssS'FUBP1'
p2413
(dp2414
g12
g4
ssS'TET1'
p2415
(dp2416
S'MLL-TET1 Fusion'
p2417
g8
sg12
g4
sg3
g4
ssS'ERCC4'
p2418
(dp2419
g12
g4
sS'R689S'
p2420
g14
sS'E875G'
p2421
g14
sS'S786F'
p2422
g14
sg3
g4
sS'L230P'
p2423
g14
ssS'TET2'
p2424
(dp2425
S'N1387A'
p2426
g4
sS'R1262A'
p2427
g20
sS'D1384V'
p2428
g91
sS'H1382Y'
p2429
g91
sS'S1303N'
p2430
g91
sS'W1291R'
p2431
g4
sS'S1290A'
p2432
g20
sS'R1896M'
p2433
g4
sS'Y1295A'
p2434
g20
sg3
g14
sS'H1904R'
p2435
g4
sS'K1299E'
p2436
g91
sS'Y1294A'
p2437
g91
sS'M1293A'
p2438
g91
ssS'RXRA'
p2439
(dp2440
S'S247F'
p2441
g91
sS'S247Y'
p2442
g91
ssS'MTOR'
p2443
(dp2444
S'Y1463S'
p2445
g38
sS'L2427R'
p2446
g8
sS'K1452N'
p2447
g38
sS'F1888I'
p2448
g8
sS'F1888L'
p2449
g8
sS'L2431P'
p2450
g8
sS'S2215Y'
p2451
g8
sS'S2215T'
p2452
g33
sS'V2006L'
p2453
g38
sS'F2108L'
p2454
g38
sS'F1888V'
p2455
g33
sS'V2006I'
p2456
g8
sS'E2014K'
p2457
g8
sS'A8S'
p2458
g20
sS'C1483R'
p2459
g8
sS'R2430M'
p2460
g33
sS'S2215F'
p2461
g8
sS'A41T'
p2462
g33
sS'I2500M'
p2463
g8
sS'I2500F'
p2464
g8
sS'R2505Q'
p2465
g33
sS'E2419K'
p2466
g8
sS'R2505*'
p2467
g33
sS'A1519T'
p2468
g8
sS'P2273S'
p2469
g8
sS'T1977R'
p2470
g8
sS'T1977S'
p2471
g33
sS'L1460P'
p2472
g8
sS'A1459P'
p2473
g8
sS'L1433S'
p2474
g8
sS'L2230V'
p2475
g8
sS'T1977K'
p2476
g8
sS'T1977I'
p2477
g8
sS'M2327I'
p2478
g8
sS'E1799K'
p2479
g8
sS'C1483F'
p2480
g8
sS'W1456R'
p2481
g38
sS'D2512Y'
p2482
g33
sS'A41P'
p2483
g33
sS'D2512G'
p2484
g33
sS'C1483W'
p2485
g8
sS'P2476L'
p2486
g33
sS'C1483Y'
p2487
g8
sS'Q2223K'
p2488
g8
sS'A2034V'
p2489
g38
ssS'BCOR'
p2490
(dp2491
g66
g36
sS'ZC3H7B-BCOR Fusion'
p2492
g36
sS'BCOR-RARA Fusion'
p2493
g36
sg3
g4
sS'BCOR-CCNB3 Fusion'
p2494
g36
ssS'DUSP4'
p2495
(dp2496
g3
g91
ssS'ATRX'
p2497
(dp2498
g12
g4
sg3
g4
ssS'EP300'
p2499
(dp2500
S'R1627'
p2501
g14
sS'P1502L'
p2502
g14
sg66
g38
sS'C1385'
p2503
g14
sS'EP300-MOZ Fusion'
p2504
g8
sS'D1399Y'
p2505
g14
sS'EP300-MLL Fusion'
p2506
g8
sg3
g4
sS'Y1414C'
p2507
g14
ssS'RAD51C'
p2508
(dp2509
S'G264S'
p2510
g33
sg12
g4
ssS'RAD51B'
p2511
(dp2512
S'HMGA2-RAD51B Fusion'
p2513
g36
ssS'HIST1H1C'
p2514
(dp2515
S'S102F'
p2516
g4
ssS'KNSTRN'
p2517
(dp2518
S'R11K'
p2519
g4
sS'S24F'
p2520
g14
sS'A40E'
p2521
g4
sS'P26S'
p2522
g4
ssS'DICER1'
p2523
(dp2524
S'G1809R'
p2525
g14
sS'D1810A'
p2526
g14
sg12
g4
sg3
g4
sS'E1705A'
p2527
g14
sS'D1709E'
p2528
g4
sS'G1809K'
p2529
g14
sS'D1709A'
p2530
g4
sS'E1705K'
p2531
g14
ssS'ARID5B'
p2532
(dp2533
g12
g4
ssS'SOS1'
p2534
(dp2535
S'E846K'
p2536
g8
sS'R552S'
p2537
g8
sS'R552G'
p2538
g8
sS'M269R'
p2539
g8
sS'N233Y'
p2540
g8
sS'G434R'
p2541
g38
ssS'VHL'
p2542
(dp2543
S'Y98N'
p2544
g4
sS'S65L'
p2545
g14
sS'F119S'
p2546
g4
sS'Y98H'
p2547
g4
sS'E70K'
p2548
g4
sS'R64P'
p2549
g14
sS'S68W'
p2550
g14
sS'W117C'
p2551
g14
sS'R167W'
p2552
g14
sg3
g4
sS'R200W'
p2553
g14
sS'L158V'
p2554
g14
sg12
g4
sS'V84L'
p2555
g91
sS'L158Q'
p2556
g14
sS'L158P'
p2557
g14
sS'Q96P'
p2558
g14
sS'A149P'
p2559
g4
sS'L128F'
p2560
g20
sS'D121G'
p2561
g4
sS'Q164R'
p2562
g14
sS'P86H'
p2563
g14
sS'Y112H'
p2564
g4
sS'S65A'
p2565
g4
sS'P25L'
p2566
g20
sS'L188Q'
p2567
g14
sS'L188V'
p2568
g4
sS'R167Q'
p2569
g14
sS'H115R'
p2570
g14
sS'V155A'
p2571
g14
sS'H191D'
p2572
g14
sS'N78S'
p2573
g14
sS'S65W'
p2574
g14
sS'R82P'
p2575
g14
sS'L118R'
p2576
g4
sS'L118P'
p2577
g4
sS'Q145H'
p2578
g14
sS'I151S'
p2579
g4
sS'R69C'
p2580
g14
sS'L63P'
p2581
g14
sS'G114R'
p2582
g4
ssS'ESR1'
p2583
(dp2584
S'Y537C'
p2585
g8
sS'V534E'
p2586
g33
sS'S432L'
p2587
g33
sS'ESR1-CCDC170 Fusion'
p2588
g8
sg66
g38
sS'Y537S'
p2589
g8
sS'V422del'
p2590
g8
sS'ESR1-YAP1 Fusion'
p2591
g8
sS'E380Q'
p2592
g8
sS'L469V'
p2593
g8
sS'S463P'
p2594
g38
sS'L536Q'
p2595
g8
sS'L536P'
p2596
g8
sS'L536H'
p2597
g8
sS'A546D'
p2598
g8
sS'L536R'
p2599
g8
ssS'FOXO1'
p2600
(dp2601
S'T24A'
p2602
g4
ssS'MET'
p2603
(dp2604
S'Y1230H'
p2605
g8
sg7
g8
sS'Y1230C'
p2606
g8
sS'D1010Y'
p2607
g38
sS'X1007_splice'
p2608
g8
sS'V1092I'
p2609
g8
sS'E168D'
p2610
g8
sS'D1010H'
p2611
g38
sS'D1010N'
p2612
g38
sS'X963_splice'
p2613
g8
sS'H1094Y'
p2614
g8
sS'L1195V'
p2615
g8
sS'X1009_splice'
p2616
g8
sS'H1106D'
p2617
g38
sS'X1008_splice'
p2618
g8
sS'R970C'
p2619
g91
sS'H1094L'
p2620
g8
sS'V1070E'
p2621
g8
sS'H1094R'
p2622
g8
sS'Y1235D'
p2623
g8
sS'Y1003*'
p2624
g38
sg9
g8
sS'PTPRZ1-MET Fusion'
p2625
g38
sS'V1188L'
p2626
g8
sS'963_D1010splice'
p2627
g8
sS'N375S'
p2628
g91
sS'M1250T'
p2629
g8
sS'N1100Y'
p2630
g8
sS'Y1003C'
p2631
g38
sS'Y1003F'
p2632
g8
sS'981_1028splice'
p2633
g8
sS'F1200I'
p2634
g8
sS'T992I'
p2635
g8
ssS'SHOC2'
p2636
(dp2637
S'S2G'
p2638
g14
ssS'EZH2'
p2639
(dp2640
g7
g8
sg9
g8
sS'Y646S'
p2641
g68
sS'A677G'
p2642
g68
sS'Y646H'
p2643
g68
sS'Y646N'
p2644
g68
sS'Y646C'
p2645
g68
sS'Y646F'
p2646
g68
ssS'CDK4'
p2647
(dp2648
g7
g8
sS'K22A'
p2649
g8
sS'R24C'
p2650
g8
ssS'KDR'
p2651
(dp2652
g7
g8
sS'C482R'
p2653
g38
sS'T771R'
p2654
g91
sS'Q472H'
p2655
g38
sS'R961W'
p2656
g91
sS'D717V'
p2657
g8
sS'A1065T'
p2658
g8
ssS'CDK6'
p2659
(dp2660
g7
g8
sS'A197T'
p2661
g14
ssS'RAD50'
p2662
(dp2663
S'L1273F'
p2664
g14
sS'L234fs'
p2665
g4
sg3
g4
ssS'CDK8'
p2666
(dp2667
g7
g8
ssS'RHEB'
p2668
(dp2669
S'Y35C'
p2670
g8
sS'Y35H'
p2671
g8
sS'Y35N'
p2672
g8
ssS'NTRK1'
p2673
(dp2674
S'TPM3-NTRK1 Fusion'
p2675
g8
sg7
g8
sS'TFG-NTRK1 Fusion'
p2676
g8
sS'NFASC-NTRK1 Fusion'
p2677
g8
sS'MPRIP-NTRK1 Fusion'
p2678
g8
sg66
g38
sS'Delta-NTRK1 Fusion'
p2679
g8
sS'V710A'
p2680
g14
sS'TPR-NTRK1 Fusion'
p2681
g8
sS'CHTOP-NTRK1 Fusion'
p2682
g38
sS'CD74-NTRK1 Fusion'
p2683
g8
sS'R342W'
p2684
g8
sS'BCAN-NTRK1 Fusion'
p2685
g38
sS'R342Q'
p2686
g8
sS'TRKAIII Splice Variant'
p2687
g8
sS'LMNA-NTRK1 Fusion'
p2688
g8
ssS'GNAS'
p2689
(dp2690
S'R201C'
p2691
g8
sS'R201H'
p2692
g8
sS'Q227R'
p2693
g38
sS'Q227L'
p2694
g38
sS'R844H'
p2695
g8
ssS'CIC'
p2696
(dp2697
g66
g4
sS'CIC-DUX4 Fusion'
p2698
g68
sg12
g4
sS'R1515H'
p2699
g4
sS'R201W'
p2700
g4
ssS'ERBB2'
p2701
(dp2702
S'D769A'
p2703
g14
sS'K753E'
p2704
g91
sS'T733I'
p2705
g38
sS'N319D'
p2706
g20
sS'G660D'
p2707
g8
sS'E321G'
p2708
g8
sS'D769H'
p2709
g8
sS'K753M'
p2710
g14
sS'Y772_A775dup'
p2711
g8
sS'S335C'
p2712
g38
sS'D769Y'
p2713
g8
sg7
g8
sS'G776delinsVC'
p2714
g8
sS'T798M'
p2715
g38
sS'G776S'
p2716
g8
sS'S783P'
p2717
g91
sS'L726I'
p2718
g8
sS'T798I'
p2719
g36
sS'L915M'
p2720
g91
sS'S310Y'
p2721
g8
sS'L785F'
p2722
g91
sS'D845A'
p2723
g14
sS'E812K'
p2724
g91
sS'V773A'
p2725
g38
sS'L755P'
p2726
g8
sS'V777A'
p2727
g38
sS'L726F'
p2728
g38
sS'H878Y'
p2729
g8
sS'V777M'
p2730
g20
sS'Exon 20 insertions/deletions'
p2731
g8
sS'K753A'
p2732
g14
sS'S653C'
p2733
g8
sS'L866M'
p2734
g8
sS'D808N'
p2735
g38
sS'Exon 20 insertions'
p2736
g8
sS'R678Q'
p2737
g38
sS'G776_V777insYVMA'
p2738
g8
sS'V659E'
p2739
g8
sS'G309E'
p2740
g8
sS'V839G'
p2741
g91
sS'M774_A775insAYVM'
p2742
g8
sS'P780L'
p2743
g38
sS'V842I'
p2744
g8
sS'C630Y'
p2745
g91
sS'C311R'
p2746
g8
sS'E719G'
p2747
g91
sS'L49H'
p2748
g20
sS'E719K'
p2749
g91
sS'V777L'
p2750
g8
sS'V794M'
p2751
g38
sS'D821N'
p2752
g38
sS'L755S'
p2753
g8
sS'Y835F'
p2754
g4
sS'R143Q'
p2755
g20
sS'S760A'
p2756
g20
sS'G778_P780dup'
p2757
g8
sS'S1002R'
p2758
g91
sS'I767M'
p2759
g8
sS'E265K'
p2760
g38
sS'D277H'
p2761
g38
sS'Y1248F'
p2762
g14
sS'Y803N'
p2763
g91
sS'S310F'
p2764
g8
sS'N857S'
p2765
g38
sS'G776delinsLC'
p2766
g8
sS'G309A'
p2767
g8
sS'E717K'
p2768
g91
sS'V750E'
p2769
g20
sS'C334S'
p2770
g8
ssS'ACVR1'
p2771
(dp2772
S'G328E'
p2773
g38
sS'G328V'
p2774
g8
sS'R206H'
p2775
g8
ssS'CDKN2C'
p2776
(dp2777
g3
g4
ssS'ERCC2'
p2778
(dp2779
g7
g38
sS'P463L'
p2780
g4
sS'R601Q'
p2781
g4
sS'D609E'
p2782
g4
sS'F568fs'
p2783
g4
sS'D513Y'
p2784
g4
sS'N238S'
p2785
g4
sS'R592H'
p2786
g20
sS'A717G'
p2787
g4
sS'S746fs'
p2788
g4
sS'V536M'
p2789
g4
sS'R487W'
p2790
g4
sS'E606G'
p2791
g4
sS'V242F'
p2792
g4
sS'L461V'
p2793
g4
sS'D423N'
p2794
g4
sS'G665A'
p2795
g4
sS'Y24C'
p2796
g4
sS'R631C'
p2797
g4
ssS'ERCC3'
p2798
(dp2799
g12
g4
sS'R109*'
p2800
g14
ssS'SF3B1'
p2801
(dp2802
S'R625L'
p2803
g68
sS'R625H'
p2804
g68
sS'K666M'
p2805
g68
sS'H662Q'
p2806
g68
sS'R625D'
p2807
g68
sS'R957Q'
p2808
g68
sS'E622D'
p2809
g68
sS'R625G'
p2810
g68
sS'H662R'
p2811
g68
sS'K666N'
p2812
g68
sS'R625C'
p2813
g68
sS'K700E'
p2814
g68
sS'K666R'
p2815
g68
sS'E622Q'
p2816
g68
sS'K666T'
p2817
g68
sS'K700R'
p2818
g36
ssS'HNF1A'
p2819
(dp2820
S'T196A'
p2821
g33
sS'P291Qfs*51'
p2822
g4
sg12
g4
ssS'MSH6'
p2823
(dp2824
S'G39E'
p2825
g20
sS'R922*'
p2826
g14
sg12
g4
sS'R976H'
p2827
g4
sS'F1088Lfs*5'
p2828
g14
sS'R1095H'
p2829
g20
sS'V509A'
p2830
g20
sS'F1088Sfs*2'
p2831
g14
sS'E946*'
p2832
g14
sg3
g4
sS'E1322*'
p2833
g14
sS'T1219I'
p2834
g4
sS'R1076C'
p2835
g4
ssS'PTCH1'
p2836
(dp2837
S'R571W'
p2838
g20
sg12
g4
ssS'CTNNB1'
p2839
(dp2840
S'S33C'
p2841
g8
sS'G34V'
p2842
g8
sS'S33A'
p2843
g8
sS'S33F'
p2844
g38
sS'G34E'
p2845
g8
sS'S33Y'
p2846
g8
sS'W383R'
p2847
g8
sS'K335I'
p2848
g8
sS'D32N'
p2849
g8
sS'D32A'
p2850
g8
sS'S45Y'
p2851
g8
sS'P44A'
p2852
g8
sS'H36P'
p2853
g8
sS'S45A'
p2854
g8
sS'S45F'
p2855
g8
sS'T41A'
p2856
g8
sS'S23R'
p2857
g8
sS'N387K'
p2858
g8
sS'S45P'
p2859
g8
sS'S45del'
p2860
g8
sS'S37Y'
p2861
g8
sS'I35S'
p2862
g8
sS'S37F'
p2863
g8
sS'S37C'
p2864
g8
sS'S37A'
p2865
g8
ssS'LATS2'
p2866
(dp2867
g3
g14
ssS'LATS1'
p2868
(dp2869
g12
g14
ssS'ERG'
p2870
(dp2871
g66
g38
sS'EWSR1-ERG Fusion'
p2872
g8
sS'TMPRSS2-ERG Fusion'
p2873
g8
sS'FUS-ERG Fusion'
p2874
g8
ssS'NOTCH2'
p2875
(dp2876
S'1_2009trunc'
p2877
g4
sS'2010_2471trunc'
p2878
g38
ssS'MAP2K4'
p2879
(dp2880
S'G85R'
p2881
g14
sS'N234I'
p2882
g14
sS'R134Q'
p2883
g38
sS'R228K'
p2884
g14
sS'R154W'
p2885
g14
sg12
g4
sS'R304*'
p2886
g14
sS'P326L'
p2887
g14
sg2198
g14
ssS'ELF3'
p2888
(dp2889
S'S330A'
p2890
g20
sS'I279P'
p2891
g4
sg12
g4
sg251
g20
sS'K320E'
p2892
g20
sS'R331P'
p2893
g4
ssS'SMARCA4'
p2894
(dp2895
g12
g4
sS'R978*'
p2896
g14
sS'R1189*'
p2897
g14
sS'T910M'
p2898
g14
sS'G1232D'
p2899
g14
sS'R1093*'
p2900
g14
ssS'CEBPA'
p2901
(dp2902
g12
g4
ssS'XRCC2'
p2903
(dp2904
g12
g4
sg3
g4
ssS'BCL2L11'
p2905
(dp2906
g12
g4
sg3
g4
ssS'MYOD1'
p2907
(dp2908
S'L122R'
p2909
g38
ssS'AXIN1'
p2910
(dp2911
g12
g4
ssS'ALK'
p2912
(dp2913
S'G1128A'
p2914
g8
sg7
g38
sS'RANBP1-ALK Fusion'
p2915
g8
sS'E1210K'
p2916
g8
sS'L1240V'
p2917
g8
sS'R1464*'
p2918
g33
sS'T1343I'
p2919
g20
sS'T1087I'
p2920
g33
sS'G1128S'
p2921
g8
sS'CAD-ALK Fusion'
p2922
g38
sS'L1198F'
p2923
g8
sS'KIF5B-ALK Fusion'
p2924
g8
sS'P1139S'
p2925
g8
sS'L1152R'
p2926
g8
sS'E1384K'
p2927
g8
sS'I1250T'
p2928
g20
sS'A1099T'
p2929
g33
sS'G1269A'
p2930
g8
sS'G1269S'
p2931
g8
sS'L1152P'
p2932
g8
sS'G1286R'
p2933
g33
sS'Y1278S'
p2934
g8
sS'A1234T'
p2935
g20
sS'NPM-ALK Fusion'
p2936
g8
sS'I1170S'
p2937
g8
sS'G1202R'
p2938
g8
sS'R1192P'
p2939
g8
sS'I1170N'
p2940
g8
sS'F1245V'
p2941
g8
sS'I1183T'
p2942
g33
sS'N1178H'
p2943
g8
sS'A1200V'
p2944
g33
sS'D1349H'
p2945
g20
sS'L1122V'
p2946
g8
sS'R1060H'
p2947
g33
sS'S1206R'
p2948
g8
sS'G1123S'
p2949
g8
sS'F1245C'
p2950
g8
sS'D1270G'
p2951
g33
sS'S1206Y'
p2952
g8
sS'Q1064R'
p2953
g8
sS'T1151dup'
p2954
g8
sS'S1206C'
p2955
g8
sS'F1174L'
p2956
g8
sS'L1204F'
p2957
g33
sS'F1174I'
p2958
g8
sS'L1198P'
p2959
g8
sS'G1123D'
p2960
g8
sS'D1091N'
p2961
g38
sS'V1180L'
p2962
g8
sS'M1328I'
p2963
g8
sS'H694R'
p2964
g8
sS'D1203N'
p2965
g38
sS'C1156Y'
p2966
g8
sS'C1156F'
p2967
g8
sS'G881D'
p2968
g8
sS'L1196M'
p2969
g8
sS'RANBP2-ALK Fusion'
p2970
g8
sg66
g38
sS'STRN-ALK Fusion'
p2971
g38
sS'V597A'
p2972
g8
sS'G1201E'
p2973
g8
sS'I1171T'
p2974
g8
sS'R1275L'
p2975
g38
sS'I1171N'
p2976
g8
sS'T1151M'
p2977
g20
sS'L1196Q'
p2978
g8
sS'K1062M'
p2979
g8
sS'R1231Q'
p2980
g33
ssS'RAD54L'
p2981
(dp2982
S'G325R'
p2983
g14
ssS'NRAS'
p2984
(dp2985
g7
g91
sg1557
g38
sg1552
g8
sS'T50I'
p2986
g38
sS'G60E'
p2987
g8
sS'Q61R'
p2988
g8
sg1540
g38
sg1546
g8
sg1547
g8
sg1548
g8
sS'G12D'
p2989
g8
sg1543
g8
ssS'MLH1'
p2990
(dp2991
S'Q689R'
p2992
g20
sS'R265S'
p2993
g4
sS'R487*'
p2994
g4
sS'G67W'
p2995
g14
sS'P648L'
p2996
g14
sg615
g4
sS'L559R'
p2997
g91
sS'R265C'
p2998
g14
sS'V384D'
p2999
g20
sS'V506A'
p3000
g91
sg12
g4
sS'R659P'
p3001
g91
sS'W714*'
p3002
g14
sS'R100*'
p3003
g14
sS'L550P'
p3004
g4
sS'L622H'
p3005
g91
sS'R659L'
p3006
g4
sS'V716M'
p3007
g20
sS'K618T'
p3008
g20
sS'T82A'
p3009
g14
sS'A120S'
p3010
g14
sS'M587V'
p3011
g91
sS'R217C'
p3012
g20
sS'P648S'
p3013
g91
sS'P654L'
p3014
g91
sS'L749P'
p3015
g91
sS'R755S'
p3016
g4
sS'T117M'
p3017
g14
sS'A111P'
p3018
g4
sS'R659*'
p3019
g14
sS'I219V'
p3020
g20
sS'E172K'
p3021
g91
sS'R725C'
p3022
g91
sS'G101S'
p3023
g4
sS'L582F'
p3024
g91
ssS'MED12'
p3025
(dp3026
S'L1224F'
p3027
g38
sS'G44S'
p3028
g68
sS'Exon 2 mutations'
p3029
g38
sS'Exon 1 mutations'
p3030
g8
sg3
g4
ssS'KLF4'
p3031
(dp3032
S'K409Q'
p3033
g38
ssS'AURKA'
p3034
(dp3035
S'F31I'
p3036
g8
sg7
g8
sS'K162D'
p3037
g14
ssS'AURKB'
p3038
(dp3039
g9
g38
ssS'RYBP'
p3040
(dp3041
g12
g4
ssS'TERT'
p3042
(dp3043
S'C228T'
p3044
g8
sg7
g38
sS'C250T'
p3045
g8
sS'P704S'
p3046
g14
sS'H876Q'
p3047
g14
sS'Promoter Mutations'
p3048
g8
sS'Y846C'
p3049
g14
sS'H412Y'
p3050
g14
ssS'KMT2C'
p3051
(dp3052
S'A1685S'
p3053
g14
sg12
g4
sS'S3660L'
p3054
g20
sg3
g4
ssS'KMT2B'
p3055
(dp3056
g12
g91
ssS'KMT2A'
p3057
(dp3058
g66
g38
sg12
g4
sg7
g91
ssS'DNMT3A'
p3059
(dp3060
S'R882C'
p3061
g38
sg12
g4
sg3
g4
ssS'SMARCB1'
p3062
(dp3063
g12
g4
sg3
g4
ssS'KMT2D'
p3064
(dp3065
g12
g4
sg3
g4
ssS'SPOP'
p3066
(dp3067
S'Y87N'
p3068
g14
sS'D130A'
p3069
g4
sS'N296I'
p3070
g4
sS'F133V'
p3071
g14
sS'M117I'
p3072
g14
sS'F102C'
p3073
g14
sS'P94A'
p3074
g14
sS'D140G'
p3075
g14
sg12
g4
sS'Y87C'
p3076
g14
sS'S119N'
p3077
g14
sS'W131A'
p3078
g4
sS'G75R'
p3079
g14
sS'E50K'
p3080
g14
sS'W131G'
p3081
g14
sS'R121Q'
p3082
g14
sS'M117V'
p3083
g14
sS'S80R'
p3084
g14
sS'K129E'
p3085
g4
sS'F133L'
p3086
g14
ssS'TMPRSS2'
p3087
(dp3088
g1599
g8
sg66
g38
sS'TMPRSS2-ETV5 Fusion'
p3089
g38
sS'TMPRSS2-ETV4 Fusion'
p3090
g38
sS'T75M'
p3091
g33
sS'M160V'
p3092
g33
ssS'RAB35'
p3093
(dp3094
S'A151T'
p3095
g8
sS'F161L'
p3096
g8
ssS'SRC'
p3097
(dp3098
S'Q531*'
p3099
g8
sg7
g38
ssS'CDK12'
p3100
(dp3101
g12
g4
sS'R882L'
p3102
g14
sS'W719*'
p3103
g14
sS'K765R'
p3104
g4
sS'Y901C'
p3105
g14
sS'G909R'
p3106
g14
sg3
g4
sS'L996F'
p3107
g14
sS'K975E'
p3108
g20
sS'D887N'
p3109
g4
ssS'AR'
p3110
(dp3111
S'A159T'
p3112
g4
sS'G248V'
p3113
g91
sg7
g8
sS'L272F'
p3114
g20
sS'Q58L'
p3115
g91
sS'Q120E'
p3116
g20
sS'H875Y'
p3117
g8
sS'T878S'
p3118
g8
sS'F876L'
p3119
g38
sS'F877L'
p3120
g8
sS'AR-V7'
p3121
g8
sS'ARv567es'
p3122
g8
sS'W742L'
p3123
g8
sS'L702H'
p3124
g8
sS'Q58_Q59insL'
p3125
g4
sS'G216R'
p3126
g91
sS'W742C'
p3127
g8
sS'L57del'
p3128
g20
sS'P380R'
p3129
g91
sS'T878A'
p3130
g8
ssS'TP53BP1'
p3131
(dp3132
g12
g4
sg3
g4
ssS'EPCAM'
p3133
(dp3134
S"3' Deletion"
p3135
g14
ssS'RAC1'
p3136
(dp3137
g7
g8
sg1552
g8
sS'P29S'
p3138
g8
sg2988
g8
sS'C18Y'
p3139
g8
sS'P29L'
p3140
g8
sS'C157Y'
p3141
g8
ssS'KRAS'
p3142
(dp3143
S'E31K'
p3144
g20
sg1537
g8
sg7
g38
sS'D119N'
p3145
g38
sg1539
g8
sS'N116H'
p3146
g91
sg1541
g8
sg1542
g8
sS'Wildtype'
p3147
g33
sg1544
g8
sS'Y40A'
p3148
g91
sg1545
g8
sS'G13E'
p3149
g38
sg1555
g8
sS'T74P'
p3150
g8
sg2988
g8
sS'F156L'
p3151
g8
sS'K147E'
p3152
g8
sg1546
g8
sg1548
g8
sS'A18D'
p3153
g8
sS'P34L'
p3154
g8
sS'S65N'
p3155
g8
sS'R164Q'
p3156
g91
sS'Q22R'
p3157
g38
sg1551
g8
sg1552
g8
sS'D153V'
p3158
g8
sS'V14I'
p3159
g8
sS'G60D'
p3160
g91
sS'G12R'
p3161
g8
sg1553
g8
sS'L19F'
p3162
g8
sS'A59G'
p3163
g8
sS'G12F'
p3164
g38
sS'Y32S'
p3165
g8
sg2989
g8
sg1554
g8
sS'G60R'
p3166
g8
sg1556
g8
sS'A11_G12insGA'
p3167
g8
sg1557
g8
sS'Q22E'
p3168
g8
sS'K5N'
p3169
g8
ssS'BAP1'
p3170
(dp3171
g12
g4
sS'C91A'
p3172
g14
sS'I47F'
p3173
g14
sS'A95D'
p3174
g14
sS'F170I'
p3175
g14
sS'C91S'
p3176
g14
sg3
g4
sS'E685V'
p3177
g14
sS'F81V'
p3178
g14
ssS'NF1'
p3179
(dp3180
S'R1204W'
p3181
g14
sg12
g4
sS'Y489C'
p3182
g14
sS'R1391S'
p3183
g14
sS'R1276P'
p3184
g14
sS'R1276Q'
p3185
g14
sg3
g14
sS'S1463F'
p3186
g14
sS'R1204G'
p3187
g14
sS'R1391G'
p3188
g14
sS'T1324N'
p3189
g14
sS'L1301R'
p3190
g14
sS'E1356G'
p3191
g14
sS'K1436Q'
p3192
g14
sS'R2450*'
p3193
g4
sS'V1398D'
p3194
g14
ssS'PTPRT'
p3195
(dp3196
S'Y412F'
p3197
g4
sS'V648G'
p3198
g4
sS'F74S'
p3199
g4
sS'A707T'
p3200
g4
sS'T1365M'
p3201
g14
sS'N510K'
p3202
g4
sS'A1022E'
p3203
g14
sS'Q984K'
p3204
g14
sS'A209T'
p3205
g4
sS'N1125I'
p3206
g14
sS'R1343L'
p3207
g14
sS'R1209W'
p3208
g14
sS'R453C'
p3209
g4
sS'L708P'
p3210
g4
sS'V995M'
p3211
g14
sS'Y280H'
p3212
g4
sS'F248S'
p3213
g4
sS'T844M'
p3214
g14
sg1363
g14
sS'R1040L'
p3215
g4
sS'D927G'
p3216
g14
sS'K218T'
p3217
g4
sS'T605M'
p3218
g4
ssS'SOX9'
p3219
(dp3220
S'H65Y'
p3221
g14
sg12
g4
sS'L142P'
p3222
g14
sS'P70R'
p3223
g4
sS'F12L'
p3224
g14
sS'K398A'
p3225
g8
sS'A19V'
p3226
g33
ssS'NOTCH1'
p3227
(dp3228
S'P2417A'
p3229
g38
sS'L1600P'
p3230
g8
sS'L1596H'
p3231
g8
sS'V1676D'
p3232
g8
sS'R1608S'
p3233
g20
sS'A1701P'
p3234
g8
sS'Truncating Mutations Upstream of Transactivation Domain'
p3235
g4
sS'L1678P'
p3236
g8
sS'SEC16A1-NOTCH1 Fusion'
p3237
g8
sS'V1605del'
p3238
g38
sS'Q2416*'
p3239
g38
sS'V1578del'
p3240
g38
sS'Q2405Rfs*17'
p3241
g38
sS'Truncating Mutations in the PEST Domain'
p3242
g38
sS'L1574P'
p3243
g8
sS'P2415del'
p3244
g38
sS'L1593P'
p3245
g8
sS'P2412T'
p3246
g38
sS'MIR143-NOTCH1 Fusion'
p3247
g38
sS'F1592S'
p3248
g8
sS'A2425T'
p3249
g38
sS'R1598P'
p3250
g8
sS'V1671I'
p3251
g38
sS'V1576E'
p3252
g8
sS'H2428Q'
p3253
g38
sS'G2430A'
p3254
g8
sg66
g38
sS'R1594Q'
p3255
g14
sS'I1616N'
p3256
g8
sS'I1616T'
p3257
g8
sS'I1680N'
p3258
g8
ssS'NFKBIA'
p3259
(dp3260
S'S32I'
p3261
g8
sS'E14*'
p3262
g8
sS'S36Y'
p3263
g38
sS'M37K'
p3264
g38
ssS'U2AF1'
p3265
(dp3266
S'S34Y'
p3267
g68
sS'S34F'
p3268
g68
sS'Q157P'
p3269
g68
ssS'PTPRD'
p3270
(dp3271
S'R1088C'
p3272
g4
sg12
g4
sS'P1311T'
p3273
g4
sg3
g14
sS'V1565I'
p3274
g4
ssS'FGFR4'
p3275
(dp3276
S'V550E'
p3277
g8
sg7
g8
sS'N535K'
p3278
g8
ssS'BRAF'
p3279
(dp3280
S'K601N'
p3281
g8
sg7
g8
sS'CUL1-BRAF Fusion'
p3282
g38
sS'K601E'
p3283
g8
sS'SND1-BRAF Fusion'
p3284
g8
sS'D594Y'
p3285
g38
sS'K601Q'
p3286
g8
sS'L485_Q494del'
p3287
g38
sS'S151A'
p3288
g38
sS'A246P'
p3289
g8
sS'K499E'
p3290
g8
sS'D594A'
p3291
g8
sS'D594G'
p3292
g38
sS'D594E'
p3293
g8
sS'V600R'
p3294
g8
sS'N581S'
p3295
g38
sS'D594N'
p3296
g8
sS'V600K'
p3297
g8
sS'V600M'
p3298
g8
sS'D594V'
p3299
g8
sS'F468C'
p3300
g8
sS'N581D'
p3301
g38
sS'V600E'
p3302
g8
sS'V600D'
p3303
g8
sS'V600G'
p3304
g8
sS'A598V'
p3305
g8
sS'A598T'
p3306
g14
sg66
g38
sS'G469del'
p3307
g38
sS'p61BRAF'
p3308
g8
sS'T488_P492del'
p3309
g38
sS'MKRN1-BRAF Fusion'
p3310
g38
sS'T599dup'
p3311
g8
sS'Q201H'
p3312
g91
sS'Y472C'
p3313
g8
sS'FAM131B-BRAF Fusion'
p3314
g8
sS'G466V'
p3315
g8
sS'G478C'
p3316
g14
sS'G466R'
p3317
g38
sS'W531C'
p3318
g20
sS'G466E'
p3319
g8
sS'G466A'
p3320
g8
sS'T599_V600insV'
p3321
g8
sS'R671Q'
p3322
g38
sS'L485_P490delinsY'
p3323
g38
sS'P490_Q494del'
p3324
g38
sS'L485_P490delinsF'
p3325
g38
sS'PAPSS1-BRAF Fusion'
p3326
g8
sS'E586K'
p3327
g8
sS'T241P'
p3328
g38
sS'K483E'
p3329
g38
sS'AKAP9-BRAF Fusion'
p3330
g8
sS'K483M'
p3331
g38
sS'V487_P492delinsA'
p3332
g38
sS'E501G'
p3333
g20
sS'L485F'
p3334
g8
sS'A728V'
p3335
g8
sS'E501K'
p3336
g91
sS'I463S'
p3337
g20
sS'E275K'
p3338
g38
sS'V600D_K601insFGLAT'
p3339
g8
sS'G464E'
p3340
g20
sS'G464V'
p3341
g8
sS'G464R'
p3342
g8
sS'N486_P490del'
p3343
g38
sS'L584F'
p3344
g91
sS'G469V'
p3345
g38
sS'I326V'
p3346
g20
sS'T599R'
p3347
g8
sS'T599I'
p3348
g8
sS'G469E'
p3349
g38
sS'G469A'
p3350
g8
sS'N581Y'
p3351
g38
sS'V471F'
p3352
g8
sS'T599_V600insEAT'
p3353
g38
sS'TRIM24-BRAF Fusion'
p3354
g8
sS'L485_P490del'
p3355
g8
sS'R506_K507insVLR'
p3356
g8
sS'T529I'
p3357
g20
sS'AGK-BRAF Fusion'
p3358
g8
sS'T529N'
p3359
g20
sS'T529M'
p3360
g20
sS'D287H'
p3361
g38
sS'G596R'
p3362
g8
sS'G596V'
p3363
g38
sS'R462E'
p3364
g38
sS'L597V'
p3365
g8
sS'R462I'
p3366
g33
sS'L597R'
p3367
g38
sS'L597S'
p3368
g38
sS'L597Q'
p3369
g8
sS'G596C'
p3370
g8
sS'KIAA1549-BRAF Fusion'
p3371
g8
ssS'GNA11'
p3372
(dp3373
g1779
g8
ssS'FOXL2'
p3374
(dp3375
g7
g91
sS'C134W'
p3376
g14
ssS'EGFR'
p3377
(dp3378
S'A767_V769dup'
p3379
g8
sg7
g8
sS'E868G'
p3380
g8
sS'H870R'
p3381
g20
sS'V769M'
p3382
g38
sS'S768_D770dup'
p3383
g8
sS'S768_V769insVAS'
p3384
g8
sS'EGFRvV'
p3385
g8
sS'V726M'
p3386
g38
sS'G810S'
p3387
g8
sS'G863D'
p3388
g8
sS'G719S'
p3389
g8
sS'E804G'
p3390
g8
sS'E746_S752delinsI'
p3391
g8
sS'E746_A750delinsQ'
p3392
g8
sS'A767_V769del'
p3393
g38
sS'G719A'
p3394
g8
sS'N826Y'
p3395
g38
sS'R776H'
p3396
g8
sS'A750P'
p3397
g8
sS'D770_N771insNPG'
p3398
g8
sS'G863S'
p3399
g38
sS'N826S'
p3400
g8
sS'S645C'
p3401
g38
sS'E866K'
p3402
g14
sS'R324L'
p3403
g8
sS'Exon 19 deletion/insertion'
p3404
g8
sS'T710A'
p3405
g38
sS'H773_V774insH'
p3406
g8
sS'P691S'
p3407
g38
sS'C620Y'
p3408
g8
sS'E746_A750del'
p3409
g8
sS'R776C'
p3410
g8
sS'W731L'
p3411
g8
sS'G796S'
p3412
g8
sS'V774A'
p3413
g38
sS'S921R'
p3414
g91
sS'EGFR-PURB Fusion'
p3415
g38
sS'E746_T751insIP'
p3416
g8
sS'T783A'
p3417
g38
sS'L747_T751del'
p3418
g8
sS'L861F'
p3419
g38
sS'EGFRvII'
p3420
g8
sS'V774M'
p3421
g38
sS'K745M'
p3422
g14
sS'E758G'
p3423
g38
sS'L861P'
p3424
g38
sS'L861Q'
p3425
g8
sS'L861R'
p3426
g8
sS'N771_H773dup'
p3427
g8
sS'EGFRvIV'
p3428
g8
sS'Exon 19 deletion'
p3429
g8
sS'S464L'
p3430
g38
sS'G465E'
p3431
g38
sS'V851A'
p3432
g14
sS'E709_T710delinsD'
p3433
g8
sS'EGFR-RAD51 Fusion'
p3434
g8
sS'E746_T751delinsVA'
p3435
g8
sS'S784F'
p3436
g8
sS'Y801H'
p3437
g8
sS'K467T'
p3438
g38
sS'I853T'
p3439
g14
sS'A750_E758delinsP'
p3440
g8
sS'E746G'
p3441
g38
sS'D837N'
p3442
g38
sS'D770_N771insD'
p3443
g8
sS'E746Q'
p3444
g38
sS'L704N'
p3445
g14
sS'E746V'
p3446
g38
sS'V769_D770insGVV'
p3447
g8
sS'D770_P772dup'
p3448
g8
sS'E734Q'
p3449
g8
sS'D770_N771insVDSVDNP'
p3450
g8
sS'E746_S752delinsA'
p3451
g8
sS'L747_E749del'
p3452
g8
sS'V742A'
p3453
g8
sS'T790M'
p3454
g8
sS'G857E'
p3455
g38
sS'EGFR-KDD'
p3456
g8
sS'E746_T751delinsA'
p3457
g8
sS'E884K'
p3458
g8
sS'T725M'
p3459
g8
sS'G719C'
p3460
g38
sS'V765A'
p3461
g38
sS'Exon 20 insertion'
p3462
g8
sS'H773dup'
p3463
g8
sS'T34_A289del'
p3464
g8
sS'G719D'
p3465
g38
sS'T263P'
p3466
g8
sS'L858Q'
p3467
g38
sS'L858R'
p3468
g8
sS'G735S'
p3469
g8
sS'H773Y'
p3470
g38
sS'I491M'
p3471
g20
sS'A750_E758del'
p3472
g8
sS'L858M'
p3473
g38
sg1971
g4
sS'L692F'
p3474
g38
sS'L703P'
p3475
g38
sS'P848L'
p3476
g20
sS'D761Y'
p3477
g38
sS'H773L'
p3478
g8
sS'I744_K745delinsKIPVAI'
p3479
g8
sS'L747_T751delinsP'
p3480
g8
sS'L833V'
p3481
g8
sS'S768I'
p3482
g8
sS'G724S'
p3483
g8
sS'L747_A750delinsP'
p3484
g8
sg2067
g8
sS'C628Y'
p3485
g33
sS'L747P'
p3486
g8
sS'L747S'
p3487
g38
sS'L747_A750del'
p3488
g8
sS'S492R'
p3489
g36
sS'L747_P753delinsS'
p3490
g8
sS'L838P'
p3491
g38
sS'L747F'
p3492
g38
sS'L838V'
p3493
g8
sS'H773insLGNP'
p3494
g8
sS'P596L'
p3495
g38
sS'E709V'
p3496
g38
sS'EGFRvIII'
p3497
g8
sS'R108K'
p3498
g8
sS'A859_L883delinsV'
p3499
g38
sS'E709Q'
p3500
g38
sS'K745_A750del'
p3501
g8
sS'E709G'
p3502
g38
sS'L747V'
p3503
g38
sS'E709A'
p3504
g8
sS'L747_P753del'
p3505
g8
sS'Exon 19 insertion'
p3506
g8
sS'E709K'
p3507
g8
sS'S752_I759del'
p3508
g38
sS'K806A'
p3509
g38
sS'D587H'
p3510
g8
sS'P753S'
p3511
g38
sS'R836C'
p3512
g38
sS'A864T'
p3513
g8
sS'A763_Y764insFQEA'
p3514
g8
sS'V843I'
p3515
g8
sS'T785A'
p3516
g8
ssS'SDHB'
p3517
(dp3518
S'S100F'
p3519
g14
ssS'EWSR1'
p3520
(dp3521
S'EWSR1-YY1 Fusion'
p3522
g8
sS'EWSR1-FLI1 Fusion'
p3523
g8
sS'EWSR1-FEV Fusion'
p3524
g38
sS'EWSR1-DDIT3 Fusion'
p3525
g8
sS'EWSR1-WT1 Fusion'
p3526
g8
sS'EWSR1-CREB1 Fusion'
p3527
g38
sg66
g38
sg1600
g8
sS'EWSR1-ATF1 Fusion'
p3528
g38
sS'EWSR1-ETV4 Fusion'
p3529
g38
sS'EWSR1-NR4A3 Fusion'
p3530
g8
ssS'BCL2'
p3531
(dp3532
S'IGH-BCL2 Fusion'
p3533
g8
ss.